
Nios_balle2.elf:     file format elf32-littlenios2
Nios_balle2.elf
architecture: nios2:r1, flags 0x00000112:
EXEC_P, HAS_SYMS, D_PAGED
start address 0x00080244

Program Header:
    LOAD off    0x00001000 vaddr 0x00080000 paddr 0x00080000 align 2**12
         filesz 0x00000020 memsz 0x00000020 flags r-x
    LOAD off    0x00001020 vaddr 0x00080020 paddr 0x00080020 align 2**12
         filesz 0x0000718c memsz 0x0000718c flags r-x
    LOAD off    0x000081ac vaddr 0x000871ac paddr 0x00088808 align 2**12
         filesz 0x0000165c memsz 0x0000165c flags rw-
    LOAD off    0x00009e64 vaddr 0x00089e64 paddr 0x00089e64 align 2**12
         filesz 0x00000000 memsz 0x00000120 flags rw-

Sections:
Idx Name          Size      VMA       LMA       File off  Algn
  0 .entry        00000020  00080000  00080000  00001000  2**5
                  CONTENTS, ALLOC, LOAD, READONLY, CODE
  1 .exceptions   00000224  00080020  00080020  00001020  2**2
                  CONTENTS, ALLOC, LOAD, READONLY, CODE
  2 .text         00006e28  00080244  00080244  00001244  2**2
                  CONTENTS, ALLOC, LOAD, READONLY, CODE
  3 .rodata       00000140  0008706c  0008706c  0000806c  2**2
                  CONTENTS, ALLOC, LOAD, READONLY, DATA
  4 .rwdata       0000165c  000871ac  00088808  000081ac  2**2
                  CONTENTS, ALLOC, LOAD, DATA, SMALL_DATA
  5 .bss          00000120  00089e64  00089e64  00009e64  2**2
                  ALLOC, SMALL_DATA
  6 .SRAM_DE2_0   00000000  00089f84  00089f84  00009808  2**0
                  CONTENTS
  7 .comment      00000023  00000000  00000000  00009808  2**0
                  CONTENTS, READONLY
  8 .debug_aranges 000008c8  00000000  00000000  00009830  2**3
                  CONTENTS, READONLY, DEBUGGING
  9 .debug_info   0000b996  00000000  00000000  0000a0f8  2**0
                  CONTENTS, READONLY, DEBUGGING
 10 .debug_abbrev 00004400  00000000  00000000  00015a8e  2**0
                  CONTENTS, READONLY, DEBUGGING
 11 .debug_line   00004de1  00000000  00000000  00019e8e  2**0
                  CONTENTS, READONLY, DEBUGGING
 12 .debug_frame  00000fc4  00000000  00000000  0001ec70  2**2
                  CONTENTS, READONLY, DEBUGGING
 13 .debug_str    000027e6  00000000  00000000  0001fc34  2**0
                  CONTENTS, READONLY, DEBUGGING
 14 .debug_loc    0000a1be  00000000  00000000  0002241a  2**0
                  CONTENTS, READONLY, DEBUGGING
 15 .debug_alt_sim_info 00000030  00000000  00000000  0002c5d8  2**2
                  CONTENTS, READONLY, DEBUGGING
 16 .debug_ranges 000010a8  00000000  00000000  0002c608  2**3
                  CONTENTS, READONLY, DEBUGGING
 17 .thread_model 00000003  00000000  00000000  0002f652  2**0
                  CONTENTS, READONLY
 18 .cpu          0000000c  00000000  00000000  0002f655  2**0
                  CONTENTS, READONLY
 19 .qsys         00000001  00000000  00000000  0002f661  2**0
                  CONTENTS, READONLY
 20 .simulation_enabled 00000001  00000000  00000000  0002f662  2**0
                  CONTENTS, READONLY
 21 .stderr_dev   0000000b  00000000  00000000  0002f663  2**0
                  CONTENTS, READONLY
 22 .stdin_dev    0000000b  00000000  00000000  0002f66e  2**0
                  CONTENTS, READONLY
 23 .stdout_dev   0000000b  00000000  00000000  0002f679  2**0
                  CONTENTS, READONLY
 24 .sopc_system_name 00000009  00000000  00000000  0002f684  2**0
                  CONTENTS, READONLY
 25 .quartus_project_dir 00000013  00000000  00000000  0002f68d  2**0
                  CONTENTS, READONLY
 26 .jdi          000059f4  00000000  00000000  0002f6a0  2**0
                  CONTENTS, READONLY
 27 .sopcinfo     000642ec  00000000  00000000  00035094  2**0
                  CONTENTS, READONLY
SYMBOL TABLE:
00080000 l    d  .entry	00000000 .entry
00080020 l    d  .exceptions	00000000 .exceptions
00080244 l    d  .text	00000000 .text
0008706c l    d  .rodata	00000000 .rodata
000871ac l    d  .rwdata	00000000 .rwdata
00089e64 l    d  .bss	00000000 .bss
00089f84 l    d  .SRAM_DE2_0	00000000 .SRAM_DE2_0
00000000 l    d  .comment	00000000 .comment
00000000 l    d  .debug_aranges	00000000 .debug_aranges
00000000 l    d  .debug_info	00000000 .debug_info
00000000 l    d  .debug_abbrev	00000000 .debug_abbrev
00000000 l    d  .debug_line	00000000 .debug_line
00000000 l    d  .debug_frame	00000000 .debug_frame
00000000 l    d  .debug_str	00000000 .debug_str
00000000 l    d  .debug_loc	00000000 .debug_loc
00000000 l    d  .debug_alt_sim_info	00000000 .debug_alt_sim_info
00000000 l    d  .debug_ranges	00000000 .debug_ranges
00000000 l    df *ABS*	00000000 ../Nios_balle2_bsp//obj/HAL/src/crt0.o
0008028c l       .text	00000000 alt_after_alt_main
00000000 l    df *ABS*	00000000 alt_irq_handler.c
00000000 l    df *ABS*	00000000 alt_instruction_exception_entry.c
00000000 l    df *ABS*	00000000 main.c
00000000 l    df *ABS*	00000000 w_sqrt.c
00000000 l    df *ABS*	00000000 e_sqrt.c
00000000 l    df *ABS*	00000000 s_fpclassify.c
00000000 l    df *ABS*	00000000 s_lib_ver.c
00000000 l    df *ABS*	00000000 s_matherr.c
00000000 l    df *ABS*	00000000 lib2-divmod.c
00000000 l    df *ABS*	00000000 addsf3.c
00000000 l    df *ABS*	00000000 divsf3.c
00000000 l    df *ABS*	00000000 gesf2.c
00000000 l    df *ABS*	00000000 lesf2.c
00000000 l    df *ABS*	00000000 mulsf3.c
00000000 l    df *ABS*	00000000 subsf3.c
00000000 l    df *ABS*	00000000 fixsfsi.c
00000000 l    df *ABS*	00000000 floatsisf.c
00000000 l    df *ABS*	00000000 adddf3.c
00000000 l    df *ABS*	00000000 divdf3.c
00000000 l    df *ABS*	00000000 ledf2.c
00000000 l    df *ABS*	00000000 muldf3.c
00000000 l    df *ABS*	00000000 subdf3.c
00000000 l    df *ABS*	00000000 floatsidf.c
00000000 l    df *ABS*	00000000 extendsfdf2.c
00000000 l    df *ABS*	00000000 truncdfsf2.c
00000000 l    df *ABS*	00000000 libgcc2.c
00000000 l    df *ABS*	00000000 libgcc2.c
00000000 l    df *ABS*	00000000 errno.c
00000000 l    df *ABS*	00000000 impure.c
000871ac l     O .rwdata	00000424 impure_data
00000000 l    df *ABS*	00000000 alt_load.c
00084e2c l     F .text	00000068 alt_load_section
00000000 l    df *ABS*	00000000 alt_main.c
00000000 l    df *ABS*	00000000 alt_sys_init.c
00084f94 l     F .text	00000034 alt_dev_reg
000875d0 l     O .rwdata	00001060 jtag_uart_0
00000000 l    df *ABS*	00000000 altera_avalon_jtag_uart_fd.c
00000000 l    df *ABS*	00000000 altera_avalon_jtag_uart_init.c
0008526c l     F .text	0000020c altera_avalon_jtag_uart_irq
00085478 l     F .text	000000a0 altera_avalon_jtag_uart_timeout
00000000 l    df *ABS*	00000000 altera_avalon_jtag_uart_ioctl.c
00000000 l    df *ABS*	00000000 altera_avalon_jtag_uart_read.c
00000000 l    df *ABS*	00000000 altera_avalon_jtag_uart_write.c
00000000 l    df *ABS*	00000000 alt_alarm_start.c
00000000 l    df *ABS*	00000000 alt_close.c
00085bdc l     F .text	0000003c alt_get_errno
00000000 l    df *ABS*	00000000 alt_dcache_flush_all.c
00000000 l    df *ABS*	00000000 alt_dev.c
00085d30 l     F .text	0000002c alt_dev_null_write
00000000 l    df *ABS*	00000000 alt_dev_llist_insert.c
00085d5c l     F .text	0000003c alt_get_errno
00000000 l    df *ABS*	00000000 alt_do_ctors.c
00000000 l    df *ABS*	00000000 alt_do_dtors.c
00000000 l    df *ABS*	00000000 alt_errno.c
00000000 l    df *ABS*	00000000 alt_icache_flush_all.c
00000000 l    df *ABS*	00000000 alt_iic.c
00000000 l    df *ABS*	00000000 alt_iic_isr_register.c
00000000 l    df *ABS*	00000000 alt_io_redirect.c
000861d0 l     F .text	000000c4 alt_open_fd
00000000 l    df *ABS*	00000000 alt_irq_vars.c
00000000 l    df *ABS*	00000000 alt_open.c
00086310 l     F .text	0000003c alt_get_errno
0008634c l     F .text	000000c4 alt_file_locked
00000000 l    df *ABS*	00000000 alt_release_fd.c
00000000 l    df *ABS*	00000000 alt_tick.c
00000000 l    df *ABS*	00000000 altera_nios2_gen2_irq.c
00000000 l    df *ABS*	00000000 alt_find_dev.c
00000000 l    df *ABS*	00000000 alt_find_file.c
00000000 l    df *ABS*	00000000 alt_get_fd.c
00000000 l    df *ABS*	00000000 alt_icache_flush.c
00000000 l    df *ABS*	00000000 atexit.c
00000000 l    df *ABS*	00000000 exit.c
00000000 l    df *ABS*	00000000 int_errno.c
00000000 l    df *ABS*	00000000 memcmp.c
00000000 l    df *ABS*	00000000 memcpy.c
00000000 l    df *ABS*	00000000 strlen.c
00000000 l    df *ABS*	00000000 __atexit.c
00000000 l    df *ABS*	00000000 __call_atexit.c
00000000 l    df *ABS*	00000000 alt_exit.c
00089e7c g     O .bss	00000004 alt_instruction_exception_handler
00084f18 g     F .text	0000007c alt_main
00089e84 g     O .bss	00000100 alt_irq
00080ca0 g     F .text	00000130 sqrt
00088808 g       *ABS*	00000000 __flash_rwdata_start
00081750 g     F .text	00000440 .hidden __divsf3
000825f4 g     F .text	00000070 .hidden __fixsfsi
0008676c g     F .text	00000024 altera_nios2_gen2_irq_init
00084e1c g     F .text	00000010 __errno
00080000 g     F .entry	0000001c __reset
00080020 g       *ABS*	00000000 __flash_exceptions_start
00089e80 g     O .bss	00000004 errno
00089e68 g     O .bss	00000004 alt_argv
000907d8 g       *ABS*	00000000 _gp
00082110 g     F .text	000004e4 .hidden __subsf3
00088658 g     O .rwdata	00000180 alt_fd_list
00086790 g     F .text	00000090 alt_find_dev
00086bc0 g     F .text	00000148 memcpy
00084a24 g     F .text	000000dc .hidden __floatsidf
00086294 g     F .text	0000007c alt_io_redirect
0008391c g     F .text	000000f4 .hidden __ltdf2
0008706c g       *ABS*	00000000 __DTOR_END__
00086a5c g     F .text	0000009c alt_exception_cause_generated_bad_addr
00081058 g     F .text	00000074 __fpclassifyd
00085670 g     F .text	0000021c altera_avalon_jtag_uart_read
000811cc g     F .text	00000064 .hidden __udivsi3
00081c4c g     F .text	000000c8 .hidden __lesf2
000869cc g     F .text	00000090 alt_icache_flush
000887f4 g     O .rwdata	00000004 alt_max_fd
00084b00 g     F .text	00000110 .hidden __extendsfdf2
00082788 g     F .text	000008ac .hidden __adddf3
000887d8 g     O .rwdata	00000004 __fdlib_version
000887dc g     O .rwdata	00000004 _global_impure_ptr
00089f84 g       *ABS*	00000000 __bss_end
000860e0 g     F .text	000000f0 alt_iic_isr_register
00086664 g     F .text	00000108 alt_tick
00080c00 g     F .text	000000a0 askBrickMemory
00086094 g     F .text	0000004c alt_ic_irq_enabled
000865c8 g     F .text	0000009c alt_alarm_stop
00089e70 g     O .bss	00000004 alt_irq_active
000800fc g     F .exceptions	000000d4 alt_irq_handler
00088630 g     O .rwdata	00000028 alt_dev_null
00085ce8 g     F .text	00000048 alt_dcache_flush_all
00088808 g       *ABS*	00000000 __ram_rwdata_end
000887ec g     O .rwdata	00000008 alt_dev_list
00081b90 g     F .text	000000bc .hidden __gtsf2
000871ac g       *ABS*	00000000 __ram_rodata_end
0008391c g     F .text	000000f4 .hidden __ledf2
00081230 g     F .text	00000058 .hidden __umodsi3
00089f84 g       *ABS*	00000000 end
000851ac g     F .text	000000c0 altera_avalon_jtag_uart_init
000801d0 g     F .exceptions	00000074 alt_instruction_exception_entry
0008706c g       *ABS*	00000000 __CTOR_LIST__
00100000 g       *ABS*	00000000 __alt_stack_pointer
00084db8 g     F .text	00000064 .hidden __clzsi2
0008588c g     F .text	00000224 altera_avalon_jtag_uart_write
00086eb8 g     F .text	00000180 __call_exitprocs
00080244 g     F .text	0000004c _start
00089e74 g     O .bss	00000004 _alt_tick_rate
00089e78 g     O .bss	00000004 _alt_nticks
00085000 g     F .text	00000048 alt_sys_init
00082664 g     F .text	00000124 .hidden __floatsisf
00086da0 g     F .text	00000118 __register_exitproc
00085518 g     F .text	00000068 altera_avalon_jtag_uart_close
000871ac g       *ABS*	00000000 __ram_rwdata_start
0008706c g       *ABS*	00000000 __ram_rodata_start
00085048 g     F .text	00000060 altera_avalon_jtag_uart_read_fd
00086928 g     F .text	000000a4 alt_get_fd
00086b44 g     F .text	0000007c memcmp
00085108 g     F .text	00000050 altera_avalon_jtag_uart_close_fd
00089f84 g       *ABS*	00000000 __alt_stack_base
00085158 g     F .text	00000054 altera_avalon_jtag_uart_ioctl_fd
00083034 g     F .text	000008e8 .hidden __divdf3
00083a10 g     F .text	00000718 .hidden __muldf3
00086820 g     F .text	00000108 alt_find_file
00085d98 g     F .text	000000a4 alt_dev_llist_insert
00089e64 g       *ABS*	00000000 __bss_start
00080290 g     F .text	00000970 main
00089e6c g     O .bss	00000004 alt_envp
000850a8 g     F .text	00000060 altera_avalon_jtag_uart_write_fd
00081c4c g     F .text	000000c8 .hidden __ltsf2
00080000 g       *ABS*	00000000 __alt_mem_SRAM_DE2_0
000810cc g     F .text	00000008 matherr
00084c10 g     F .text	000001a8 .hidden __truncdfsf2
000887f8 g     O .rwdata	00000004 alt_errno
000810d4 g     F .text	00000084 .hidden __divsi3
0008706c g       *ABS*	00000000 __CTOR_END__
00081d14 g     F .text	000003fc .hidden __mulsf3
0008706c g       *ABS*	00000000 __flash_rodata_start
0008706c g       *ABS*	00000000 __DTOR_LIST__
00084fc8 g     F .text	00000038 alt_irq_init
00086564 g     F .text	00000064 alt_release_fd
00087071 g     O .rodata	00000100 .hidden __clz_tab
00086af8 g     F .text	00000014 atexit
00081b90 g     F .text	000000bc .hidden __gesf2
000887e0 g     O .rwdata	00000004 _impure_ptr
00089e64 g     O .bss	00000004 alt_argc
00085e9c g     F .text	00000060 _do_dtors
00080020 g       .exceptions	00000000 alt_irq_entry
000887e4 g     O .rwdata	00000008 alt_fs_list
00080020 g       *ABS*	00000000 __ram_exceptions_start
00080dd0 g     F .text	00000288 __ieee754_sqrt
00085f30 g     F .text	00000050 alt_ic_isr_register
00088808 g       *ABS*	00000000 _edata
00089f84 g       *ABS*	00000000 _end
00080244 g       *ABS*	00000000 __ram_exceptions_end
00085580 g     F .text	000000f0 altera_avalon_jtag_uart_ioctl
00086008 g     F .text	0000008c alt_ic_irq_disable
00086b0c g     F .text	00000038 exit
00081158 g     F .text	00000074 .hidden __modsi3
00100000 g       *ABS*	00000000 __alt_data_end
00080020 g     F .exceptions	00000000 alt_exception
00087038 g     F .text	00000034 _exit
00085ab0 g     F .text	0000012c alt_alarm_start
00086d08 g     F .text	00000098 strlen
00086410 g     F .text	00000154 open
00085efc g     F .text	00000034 alt_icache_flush_all
000887fc g     O .rwdata	00000004 alt_priority_mask
00085f80 g     F .text	00000088 alt_ic_irq_enable
00084128 g     F .text	000008fc .hidden __subdf3
00088800 g     O .rwdata	00000008 alt_alarm_list
00085e3c g     F .text	00000060 _do_ctors
00085c18 g     F .text	000000d0 close
00081288 g     F .text	000004c8 .hidden __addsf3
00084e94 g     F .text	00000084 alt_load



Disassembly of section .entry:

00080000 <__reset>:
   80000:	00840014 	movui	r2,4096
   80004:	1001483a 	initi	r2
   80008:	10bff804 	addi	r2,r2,-32
   8000c:	00bffd16 	blt	zero,r2,80004 <__alt_data_end+0xfff80004>
   80010:	00400234 	movhi	at,8
   80014:	08409114 	ori	at,at,580
   80018:	0800683a 	jmp	at
   8001c:	00000000 	call	0 <__reset-0x80000>

Disassembly of section .exceptions:

00080020 <alt_exception>:
   80020:	deffed04 	addi	sp,sp,-76
   80024:	dfc00015 	stw	ra,0(sp)
   80028:	d8400215 	stw	at,8(sp)
   8002c:	d8800315 	stw	r2,12(sp)
   80030:	d8c00415 	stw	r3,16(sp)
   80034:	d9000515 	stw	r4,20(sp)
   80038:	d9400615 	stw	r5,24(sp)
   8003c:	d9800715 	stw	r6,28(sp)
   80040:	d9c00815 	stw	r7,32(sp)
   80044:	000b307a 	rdctl	r5,estatus
   80048:	da000915 	stw	r8,36(sp)
   8004c:	da400a15 	stw	r9,40(sp)
   80050:	da800b15 	stw	r10,44(sp)
   80054:	dac00c15 	stw	r11,48(sp)
   80058:	db000d15 	stw	r12,52(sp)
   8005c:	db400e15 	stw	r13,56(sp)
   80060:	db800f15 	stw	r14,60(sp)
   80064:	dbc01015 	stw	r15,64(sp)
   80068:	d9401115 	stw	r5,68(sp)
   8006c:	ebffff04 	addi	r15,ea,-4
   80070:	dbc01215 	stw	r15,72(sp)
   80074:	0009313a 	rdctl	r4,ipending
   80078:	2880004c 	andi	r2,r5,1
   8007c:	10000326 	beq	r2,zero,8008c <alt_exception+0x6c>
   80080:	20000226 	beq	r4,zero,8008c <alt_exception+0x6c>
   80084:	00800fc0 	call	800fc <alt_irq_handler>
   80088:	00000706 	br	800a8 <alt_exception+0x88>
   8008c:	df401215 	stw	ea,72(sp)
   80090:	e8bfff17 	ldw	r2,-4(ea)
   80094:	e93fff04 	addi	r4,ea,-4
   80098:	00801d00 	call	801d0 <alt_instruction_exception_entry>
   8009c:	1000021e 	bne	r2,zero,800a8 <alt_exception+0x88>
   800a0:	ebffff04 	addi	r15,ea,-4
   800a4:	dbc01215 	stw	r15,72(sp)
   800a8:	d9401117 	ldw	r5,68(sp)
   800ac:	df401217 	ldw	ea,72(sp)
   800b0:	dfc00017 	ldw	ra,0(sp)
   800b4:	2801707a 	wrctl	estatus,r5
   800b8:	d8400217 	ldw	at,8(sp)
   800bc:	d8800317 	ldw	r2,12(sp)
   800c0:	d8c00417 	ldw	r3,16(sp)
   800c4:	d9000517 	ldw	r4,20(sp)
   800c8:	d9400617 	ldw	r5,24(sp)
   800cc:	d9800717 	ldw	r6,28(sp)
   800d0:	d9c00817 	ldw	r7,32(sp)
   800d4:	da000917 	ldw	r8,36(sp)
   800d8:	da400a17 	ldw	r9,40(sp)
   800dc:	da800b17 	ldw	r10,44(sp)
   800e0:	dac00c17 	ldw	r11,48(sp)
   800e4:	db000d17 	ldw	r12,52(sp)
   800e8:	db400e17 	ldw	r13,56(sp)
   800ec:	db800f17 	ldw	r14,60(sp)
   800f0:	dbc01017 	ldw	r15,64(sp)
   800f4:	dec01304 	addi	sp,sp,76
   800f8:	ef80083a 	eret

000800fc <alt_irq_handler>:
   800fc:	defff904 	addi	sp,sp,-28
   80100:	dfc00615 	stw	ra,24(sp)
   80104:	df000515 	stw	fp,20(sp)
   80108:	df000504 	addi	fp,sp,20
   8010c:	0001883a 	nop
   80110:	0005313a 	rdctl	r2,ipending
   80114:	e0bffe15 	stw	r2,-8(fp)
   80118:	e0bffe17 	ldw	r2,-8(fp)
   8011c:	e0bffb15 	stw	r2,-20(fp)
   80120:	e03ffd15 	stw	zero,-12(fp)
   80124:	00800044 	movi	r2,1
   80128:	e0bffc15 	stw	r2,-16(fp)
   8012c:	e0fffb17 	ldw	r3,-20(fp)
   80130:	e0bffc17 	ldw	r2,-16(fp)
   80134:	1884703a 	and	r2,r3,r2
   80138:	10001426 	beq	r2,zero,8018c <alt_irq_handler+0x90>
   8013c:	00800274 	movhi	r2,9
   80140:	10a7a104 	addi	r2,r2,-24956
   80144:	e0fffd17 	ldw	r3,-12(fp)
   80148:	180690fa 	slli	r3,r3,3
   8014c:	10c5883a 	add	r2,r2,r3
   80150:	10c00017 	ldw	r3,0(r2)
   80154:	00800274 	movhi	r2,9
   80158:	10a7a104 	addi	r2,r2,-24956
   8015c:	e13ffd17 	ldw	r4,-12(fp)
   80160:	200890fa 	slli	r4,r4,3
   80164:	1105883a 	add	r2,r2,r4
   80168:	10800104 	addi	r2,r2,4
   8016c:	10800017 	ldw	r2,0(r2)
   80170:	1009883a 	mov	r4,r2
   80174:	183ee83a 	callr	r3
   80178:	0001883a 	nop
   8017c:	0005313a 	rdctl	r2,ipending
   80180:	e0bfff15 	stw	r2,-4(fp)
   80184:	e0bfff17 	ldw	r2,-4(fp)
   80188:	00000706 	br	801a8 <alt_irq_handler+0xac>
   8018c:	e0bffc17 	ldw	r2,-16(fp)
   80190:	1085883a 	add	r2,r2,r2
   80194:	e0bffc15 	stw	r2,-16(fp)
   80198:	e0bffd17 	ldw	r2,-12(fp)
   8019c:	10800044 	addi	r2,r2,1
   801a0:	e0bffd15 	stw	r2,-12(fp)
   801a4:	003fe106 	br	8012c <__alt_data_end+0xfff8012c>
   801a8:	e0bffb15 	stw	r2,-20(fp)
   801ac:	e0bffb17 	ldw	r2,-20(fp)
   801b0:	103fdb1e 	bne	r2,zero,80120 <__alt_data_end+0xfff80120>
   801b4:	0001883a 	nop
   801b8:	0001883a 	nop
   801bc:	e037883a 	mov	sp,fp
   801c0:	dfc00117 	ldw	ra,4(sp)
   801c4:	df000017 	ldw	fp,0(sp)
   801c8:	dec00204 	addi	sp,sp,8
   801cc:	f800283a 	ret

000801d0 <alt_instruction_exception_entry>:
   801d0:	defffb04 	addi	sp,sp,-20
   801d4:	dfc00415 	stw	ra,16(sp)
   801d8:	df000315 	stw	fp,12(sp)
   801dc:	df000304 	addi	fp,sp,12
   801e0:	e13fff15 	stw	r4,-4(fp)
   801e4:	000531fa 	rdctl	r2,exception
   801e8:	e0bffd15 	stw	r2,-12(fp)
   801ec:	e0bffd17 	ldw	r2,-12(fp)
   801f0:	10801f0c 	andi	r2,r2,124
   801f4:	1004d0ba 	srli	r2,r2,2
   801f8:	e0bffd15 	stw	r2,-12(fp)
   801fc:	0005333a 	rdctl	r2,badaddr
   80200:	e0bffe15 	stw	r2,-8(fp)
   80204:	d0a5a917 	ldw	r2,-26972(gp)
   80208:	10000726 	beq	r2,zero,80228 <alt_instruction_exception_entry+0x58>
   8020c:	d0a5a917 	ldw	r2,-26972(gp)
   80210:	e0fffd17 	ldw	r3,-12(fp)
   80214:	e1bffe17 	ldw	r6,-8(fp)
   80218:	e17fff17 	ldw	r5,-4(fp)
   8021c:	1809883a 	mov	r4,r3
   80220:	103ee83a 	callr	r2
   80224:	00000206 	br	80230 <alt_instruction_exception_entry+0x60>
   80228:	003da03a 	break	0
   8022c:	0005883a 	mov	r2,zero
   80230:	e037883a 	mov	sp,fp
   80234:	dfc00117 	ldw	ra,4(sp)
   80238:	df000017 	ldw	fp,0(sp)
   8023c:	dec00204 	addi	sp,sp,8
   80240:	f800283a 	ret

Disassembly of section .text:

00080244 <_start>:
   80244:	00820014 	movui	r2,2048
   80248:	10000033 	initd	0(r2)
   8024c:	10bff804 	addi	r2,r2,-32
   80250:	00bffd16 	blt	zero,r2,80248 <__alt_data_end+0xfff80248>
   80254:	06c00434 	movhi	sp,16
   80258:	dec00014 	ori	sp,sp,0
   8025c:	06800274 	movhi	gp,9
   80260:	d681f614 	ori	gp,gp,2008
   80264:	00800234 	movhi	r2,8
   80268:	10a79914 	ori	r2,r2,40548
   8026c:	00c00234 	movhi	r3,8
   80270:	18e7e114 	ori	r3,r3,40836
   80274:	10c00326 	beq	r2,r3,80284 <_start+0x40>
   80278:	10000015 	stw	zero,0(r2)
   8027c:	10800104 	addi	r2,r2,4
   80280:	10fffd36 	bltu	r2,r3,80278 <__alt_data_end+0xfff80278>
   80284:	0084e940 	call	84e94 <alt_load>
   80288:	0084f180 	call	84f18 <alt_main>

0008028c <alt_after_alt_main>:
   8028c:	003fff06 	br	8028c <__alt_data_end+0xfff8028c>

00080290 <main>:

char askBrickMemory(int px_x, int px_y);


int main()
{
   80290:	defff204 	addi	sp,sp,-56
   80294:	dfc00d15 	stw	ra,52(sp)
   80298:	df000c15 	stw	fp,48(sp)
   8029c:	dc400b15 	stw	r17,44(sp)
   802a0:	dc000a15 	stw	r16,40(sp)
   802a4:	df000c04 	addi	fp,sp,48
	IOWR(EN_NIOS_BASE,0,0);
   802a8:	0007883a 	mov	r3,zero
   802ac:	00800434 	movhi	r2,16
   802b0:	10843804 	addi	r2,r2,4320
   802b4:	10c00035 	stwio	r3,0(r2)
	IOWR(PERDU_BASE,0,0);
   802b8:	0007883a 	mov	r3,zero
   802bc:	00800434 	movhi	r2,16
   802c0:	10843404 	addi	r2,r2,4304
   802c4:	10c00035 	stwio	r3,0(r2)
	IOWR(ADR_BRIQUE_BASE, 0, 511);
   802c8:	00c07fc4 	movi	r3,511
   802cc:	00800434 	movhi	r2,16
   802d0:	10843c04 	addi	r2,r2,4336
   802d4:	10c00035 	stwio	r3,0(r2)

	float position_x = 315;
   802d8:	0090e7b4 	movhi	r2,17310
   802dc:	10a00004 	addi	r2,r2,-32768
   802e0:	e0bff415 	stw	r2,-48(fp)
	float position_y = 440;
   802e4:	0090f734 	movhi	r2,17372
   802e8:	e0bff515 	stw	r2,-44(fp)
	float vitesse_x = -8;
   802ec:	00b04034 	movhi	r2,49408
   802f0:	e0bff615 	stw	r2,-40(fp)
	float vitesse_y = -3;
   802f4:	00b01034 	movhi	r2,49216
   802f8:	e0bff715 	stw	r2,-36(fp)
	float vitesse;

	// Ecriture de la position initiale de la balle
	IOWR(X_POSITION_BASE,0,(int) position_x);
   802fc:	e13ff417 	ldw	r4,-48(fp)
   80300:	00825f40 	call	825f4 <__fixsfsi>
   80304:	1007883a 	mov	r3,r2
   80308:	00800434 	movhi	r2,16
   8030c:	10842804 	addi	r2,r2,4256
   80310:	10c00035 	stwio	r3,0(r2)
	IOWR(Y_POSITION_BASE,0,(int) position_y);
   80314:	e13ff517 	ldw	r4,-44(fp)
   80318:	00825f40 	call	825f4 <__fixsfsi>
   8031c:	1007883a 	mov	r3,r2
   80320:	00800434 	movhi	r2,16
   80324:	10842404 	addi	r2,r2,4240
   80328:	10c00035 	stwio	r3,0(r2)


	while (1)
	{
		// Si enable
		if(IORD(EN_BASE,0))
   8032c:	00800434 	movhi	r2,16
   80330:	10843004 	addi	r2,r2,4288
   80334:	10800037 	ldwio	r2,0(r2)
   80338:	103ffc26 	beq	r2,zero,8032c <__alt_data_end+0xfff8032c>
		{
			//printf("x:%f, y:%f\n",position_x,position_y);

			// Calcul norme de la vitesse
			vitesse = sqrt((vitesse_x)*(vitesse_x)+(vitesse_y)*(vitesse_y));
   8033c:	e17ff617 	ldw	r5,-40(fp)
   80340:	e13ff617 	ldw	r4,-40(fp)
   80344:	0081d140 	call	81d14 <__mulsf3>
   80348:	1007883a 	mov	r3,r2
   8034c:	1821883a 	mov	r16,r3
   80350:	e17ff717 	ldw	r5,-36(fp)
   80354:	e13ff717 	ldw	r4,-36(fp)
   80358:	0081d140 	call	81d14 <__mulsf3>
   8035c:	1007883a 	mov	r3,r2
   80360:	1805883a 	mov	r2,r3
   80364:	100b883a 	mov	r5,r2
   80368:	8009883a 	mov	r4,r16
   8036c:	00812880 	call	81288 <__addsf3>
   80370:	1007883a 	mov	r3,r2
   80374:	1805883a 	mov	r2,r3
   80378:	1009883a 	mov	r4,r2
   8037c:	0084b000 	call	84b00 <__extendsfdf2>
   80380:	100b883a 	mov	r5,r2
   80384:	180d883a 	mov	r6,r3
   80388:	2809883a 	mov	r4,r5
   8038c:	300b883a 	mov	r5,r6
   80390:	0080ca00 	call	80ca0 <sqrt>
   80394:	100b883a 	mov	r5,r2
   80398:	180d883a 	mov	r6,r3
   8039c:	2809883a 	mov	r4,r5
   803a0:	300b883a 	mov	r5,r6
   803a4:	0084c100 	call	84c10 <__truncdfsf2>
   803a8:	1007883a 	mov	r3,r2
   803ac:	e0fffa15 	stw	r3,-24(fp)

			// Lecture position raquette (en px)
			int pos_raquette = IORD(POS_RAQUETTE_BASE,0);
   803b0:	00800434 	movhi	r2,16
   803b4:	10844404 	addi	r2,r2,4368
   803b8:	10800037 	ldwio	r2,0(r2)
   803bc:	e0bffb15 	stw	r2,-20(fp)
			printf("vx : %f\n", vitesse_x);
			printf("vy : %f\n\n", vitesse_y);
*/
			//printf("OK");
			// Décomposition de la trajectoire en déplacements élémentaires
			for (int i=0; i<vitesse; i++)
   803c0:	e03ff815 	stw	zero,-32(fp)
   803c4:	0001f206 	br	80b90 <main+0x900>
			{

				// Déplacement élémentaire
				position_x += (vitesse_x / (vitesse));
   803c8:	e17ffa17 	ldw	r5,-24(fp)
   803cc:	e13ff617 	ldw	r4,-40(fp)
   803d0:	00817500 	call	81750 <__divsf3>
   803d4:	1007883a 	mov	r3,r2
   803d8:	1805883a 	mov	r2,r3
   803dc:	100b883a 	mov	r5,r2
   803e0:	e13ff417 	ldw	r4,-48(fp)
   803e4:	00812880 	call	81288 <__addsf3>
   803e8:	1007883a 	mov	r3,r2
   803ec:	e0fff415 	stw	r3,-48(fp)
				position_y += (vitesse_y / (vitesse));
   803f0:	e17ffa17 	ldw	r5,-24(fp)
   803f4:	e13ff717 	ldw	r4,-36(fp)
   803f8:	00817500 	call	81750 <__divsf3>
   803fc:	1007883a 	mov	r3,r2
   80400:	1805883a 	mov	r2,r3
   80404:	100b883a 	mov	r5,r2
   80408:	e13ff517 	ldw	r4,-44(fp)
   8040c:	00812880 	call	81288 <__addsf3>
   80410:	1007883a 	mov	r3,r2
   80414:	e0fff515 	stw	r3,-44(fp)

				int pos_avant;
				if (((int) position_y) == 430)
   80418:	e13ff517 	ldw	r4,-44(fp)
   8041c:	00825f40 	call	825f4 <__fixsfsi>
   80420:	10806b98 	cmpnei	r2,r2,430
   80424:	1000021e 	bne	r2,zero,80430 <main+0x1a0>
				{
					pos_avant = pos_raquette;
   80428:	e0bffb17 	ldw	r2,-20(fp)
   8042c:	e0bff915 	stw	r2,-28(fp)
				}

				// Rebond raquette
				if (position_y >= 440)
   80430:	0150f734 	movhi	r5,17372
   80434:	e13ff517 	ldw	r4,-44(fp)
   80438:	0081b900 	call	81b90 <__gesf2>
   8043c:	1000b616 	blt	r2,zero,80718 <main+0x488>
				{
					// Haut
					if (position_y <= 460 && position_x >= pos_raquette &&  (position_x + 20) <= (pos_raquette + 120) && vitesse_y > 0)
   80440:	0150f9b4 	movhi	r5,17382
   80444:	e13ff517 	ldw	r4,-44(fp)
   80448:	0081c4c0 	call	81c4c <__lesf2>
   8044c:	00809c16 	blt	zero,r2,806c0 <main+0x430>
   80450:	e13ffb17 	ldw	r4,-20(fp)
   80454:	00826640 	call	82664 <__floatsisf>
   80458:	1007883a 	mov	r3,r2
   8045c:	e17ff417 	ldw	r5,-48(fp)
   80460:	1809883a 	mov	r4,r3
   80464:	0081c4c0 	call	81c4c <__lesf2>
   80468:	00809516 	blt	zero,r2,806c0 <main+0x430>
   8046c:	01506834 	movhi	r5,16800
   80470:	e13ff417 	ldw	r4,-48(fp)
   80474:	00812880 	call	81288 <__addsf3>
   80478:	1007883a 	mov	r3,r2
   8047c:	1821883a 	mov	r16,r3
   80480:	e0bffb17 	ldw	r2,-20(fp)
   80484:	10801e04 	addi	r2,r2,120
   80488:	1009883a 	mov	r4,r2
   8048c:	00826640 	call	82664 <__floatsisf>
   80490:	1007883a 	mov	r3,r2
   80494:	180b883a 	mov	r5,r3
   80498:	8009883a 	mov	r4,r16
   8049c:	0081c4c0 	call	81c4c <__lesf2>
   804a0:	00808716 	blt	zero,r2,806c0 <main+0x430>
   804a4:	000b883a 	mov	r5,zero
   804a8:	e13ff717 	ldw	r4,-36(fp)
   804ac:	0081b900 	call	81b90 <__gesf2>
   804b0:	0080830e 	bge	zero,r2,806c0 <main+0x430>
					{
						//if (position_x > pos_raquette + 70)

							float vitesse_x_temp = vitesse_x + 0.05*(pos_raquette- pos_avant);
   804b4:	e13ff617 	ldw	r4,-40(fp)
   804b8:	0084b000 	call	84b00 <__extendsfdf2>
   804bc:	1021883a 	mov	r16,r2
   804c0:	1823883a 	mov	r17,r3
   804c4:	e0fffb17 	ldw	r3,-20(fp)
   804c8:	e0bff917 	ldw	r2,-28(fp)
   804cc:	1885c83a 	sub	r2,r3,r2
   804d0:	1009883a 	mov	r4,r2
   804d4:	0084a240 	call	84a24 <__floatsidf>
   804d8:	1011883a 	mov	r8,r2
   804dc:	1813883a 	mov	r9,r3
   804e0:	01a666b4 	movhi	r6,39322
   804e4:	31a66684 	addi	r6,r6,-26214
   804e8:	01cfeab4 	movhi	r7,16298
   804ec:	39e66644 	addi	r7,r7,-26215
   804f0:	4009883a 	mov	r4,r8
   804f4:	480b883a 	mov	r5,r9
   804f8:	0083a100 	call	83a10 <__muldf3>
   804fc:	1009883a 	mov	r4,r2
   80500:	180b883a 	mov	r5,r3
   80504:	2005883a 	mov	r2,r4
   80508:	2807883a 	mov	r3,r5
   8050c:	100d883a 	mov	r6,r2
   80510:	180f883a 	mov	r7,r3
   80514:	8009883a 	mov	r4,r16
   80518:	880b883a 	mov	r5,r17
   8051c:	00827880 	call	82788 <__adddf3>
   80520:	1009883a 	mov	r4,r2
   80524:	180b883a 	mov	r5,r3
   80528:	2005883a 	mov	r2,r4
   8052c:	2807883a 	mov	r3,r5
   80530:	1009883a 	mov	r4,r2
   80534:	180b883a 	mov	r5,r3
   80538:	0084c100 	call	84c10 <__truncdfsf2>
   8053c:	1007883a 	mov	r3,r2
   80540:	e0fffc15 	stw	r3,-16(fp)
							float vitesse_y_temp = - sqrt(vitesse*vitesse-vitesse_x_temp*vitesse_x_temp);
   80544:	e17ffa17 	ldw	r5,-24(fp)
   80548:	e13ffa17 	ldw	r4,-24(fp)
   8054c:	0081d140 	call	81d14 <__mulsf3>
   80550:	1007883a 	mov	r3,r2
   80554:	1821883a 	mov	r16,r3
   80558:	e17ffc17 	ldw	r5,-16(fp)
   8055c:	e13ffc17 	ldw	r4,-16(fp)
   80560:	0081d140 	call	81d14 <__mulsf3>
   80564:	1007883a 	mov	r3,r2
   80568:	1805883a 	mov	r2,r3
   8056c:	100b883a 	mov	r5,r2
   80570:	8009883a 	mov	r4,r16
   80574:	00821100 	call	82110 <__subsf3>
   80578:	1007883a 	mov	r3,r2
   8057c:	1805883a 	mov	r2,r3
   80580:	1009883a 	mov	r4,r2
   80584:	0084b000 	call	84b00 <__extendsfdf2>
   80588:	100b883a 	mov	r5,r2
   8058c:	180d883a 	mov	r6,r3
   80590:	2809883a 	mov	r4,r5
   80594:	300b883a 	mov	r5,r6
   80598:	0080ca00 	call	80ca0 <sqrt>
   8059c:	100b883a 	mov	r5,r2
   805a0:	180d883a 	mov	r6,r3
   805a4:	2809883a 	mov	r4,r5
   805a8:	300b883a 	mov	r5,r6
   805ac:	0084c100 	call	84c10 <__truncdfsf2>
   805b0:	1007883a 	mov	r3,r2
   805b4:	18a0003c 	xorhi	r2,r3,32768
   805b8:	e0bffd15 	stw	r2,-12(fp)
							if (fabs(vitesse_x_temp) < (vitesse - 0.5) && fabs(vitesse_y_temp) < (vitesse - 0.5))
   805bc:	e0fffc17 	ldw	r3,-16(fp)
   805c0:	00a00034 	movhi	r2,32768
   805c4:	10bfffc4 	addi	r2,r2,-1
   805c8:	1884703a 	and	r2,r3,r2
   805cc:	1009883a 	mov	r4,r2
   805d0:	0084b000 	call	84b00 <__extendsfdf2>
   805d4:	1021883a 	mov	r16,r2
   805d8:	1823883a 	mov	r17,r3
   805dc:	e13ffa17 	ldw	r4,-24(fp)
   805e0:	0084b000 	call	84b00 <__extendsfdf2>
   805e4:	1011883a 	mov	r8,r2
   805e8:	1813883a 	mov	r9,r3
   805ec:	000d883a 	mov	r6,zero
   805f0:	01cff834 	movhi	r7,16352
   805f4:	4009883a 	mov	r4,r8
   805f8:	480b883a 	mov	r5,r9
   805fc:	00841280 	call	84128 <__subdf3>
   80600:	1009883a 	mov	r4,r2
   80604:	180b883a 	mov	r5,r3
   80608:	2005883a 	mov	r2,r4
   8060c:	2807883a 	mov	r3,r5
   80610:	100d883a 	mov	r6,r2
   80614:	180f883a 	mov	r7,r3
   80618:	8009883a 	mov	r4,r16
   8061c:	880b883a 	mov	r5,r17
   80620:	008391c0 	call	8391c <__ledf2>
   80624:	1000200e 	bge	r2,zero,806a8 <main+0x418>
   80628:	e0fffd17 	ldw	r3,-12(fp)
   8062c:	00a00034 	movhi	r2,32768
   80630:	10bfffc4 	addi	r2,r2,-1
   80634:	1884703a 	and	r2,r3,r2
   80638:	1009883a 	mov	r4,r2
   8063c:	0084b000 	call	84b00 <__extendsfdf2>
   80640:	1021883a 	mov	r16,r2
   80644:	1823883a 	mov	r17,r3
   80648:	e13ffa17 	ldw	r4,-24(fp)
   8064c:	0084b000 	call	84b00 <__extendsfdf2>
   80650:	1011883a 	mov	r8,r2
   80654:	1813883a 	mov	r9,r3
   80658:	000d883a 	mov	r6,zero
   8065c:	01cff834 	movhi	r7,16352
   80660:	4009883a 	mov	r4,r8
   80664:	480b883a 	mov	r5,r9
   80668:	00841280 	call	84128 <__subdf3>
   8066c:	1009883a 	mov	r4,r2
   80670:	180b883a 	mov	r5,r3
   80674:	2005883a 	mov	r2,r4
   80678:	2807883a 	mov	r3,r5
   8067c:	100d883a 	mov	r6,r2
   80680:	180f883a 	mov	r7,r3
   80684:	8009883a 	mov	r4,r16
   80688:	880b883a 	mov	r5,r17
   8068c:	008391c0 	call	8391c <__ledf2>
   80690:	1000050e 	bge	r2,zero,806a8 <main+0x418>
							{
								vitesse_x = vitesse_x_temp;
   80694:	e0bffc17 	ldw	r2,-16(fp)
   80698:	e0bff615 	stw	r2,-40(fp)
								vitesse_y = vitesse_y_temp;
   8069c:	e0bffd17 	ldw	r2,-12(fp)
   806a0:	e0bff715 	stw	r2,-36(fp)
   806a4:	00000606 	br	806c0 <main+0x430>
							}
							else
							{
								vitesse_y = - fabs(vitesse_y);
   806a8:	e0fff717 	ldw	r3,-36(fp)
   806ac:	00a00034 	movhi	r2,32768
   806b0:	10bfffc4 	addi	r2,r2,-1
   806b4:	1884703a 	and	r2,r3,r2
   806b8:	10a0003c 	xorhi	r2,r2,32768
   806bc:	e0bff715 	stw	r2,-36(fp)
						}*/

					}

					// Droite
					if (((int) position_x) == pos_raquette + 120)
   806c0:	e13ff417 	ldw	r4,-48(fp)
   806c4:	00825f40 	call	825f4 <__fixsfsi>
   806c8:	1007883a 	mov	r3,r2
   806cc:	e0bffb17 	ldw	r2,-20(fp)
   806d0:	10801e04 	addi	r2,r2,120
   806d4:	1880051e 	bne	r3,r2,806ec <main+0x45c>
					{
						vitesse_x = fabs(vitesse_x);
   806d8:	e0fff617 	ldw	r3,-40(fp)
   806dc:	00a00034 	movhi	r2,32768
   806e0:	10bfffc4 	addi	r2,r2,-1
   806e4:	1884703a 	and	r2,r3,r2
   806e8:	e0bff615 	stw	r2,-40(fp)
					}

					// Gauche
					if ((((int) position_x) + 20) == pos_raquette)
   806ec:	e13ff417 	ldw	r4,-48(fp)
   806f0:	00825f40 	call	825f4 <__fixsfsi>
   806f4:	10c00504 	addi	r3,r2,20
   806f8:	e0bffb17 	ldw	r2,-20(fp)
   806fc:	1880061e 	bne	r3,r2,80718 <main+0x488>
					{
						vitesse_x = (-fabs(vitesse_x));
   80700:	e0fff617 	ldw	r3,-40(fp)
   80704:	00a00034 	movhi	r2,32768
   80708:	10bfffc4 	addi	r2,r2,-1
   8070c:	1884703a 	and	r2,r3,r2
   80710:	10a0003c 	xorhi	r2,r2,32768
   80714:	e0bff615 	stw	r2,-40(fp)
					}
				}

				// Haut
				if (position_y <= 0)
   80718:	000b883a 	mov	r5,zero
   8071c:	e13ff517 	ldw	r4,-44(fp)
   80720:	0081c4c0 	call	81c4c <__lesf2>
   80724:	00800616 	blt	zero,r2,80740 <main+0x4b0>
				{
					vitesse_y = fabs(vitesse_y) ;
   80728:	e0fff717 	ldw	r3,-36(fp)
   8072c:	00a00034 	movhi	r2,32768
   80730:	10bfffc4 	addi	r2,r2,-1
   80734:	1884703a 	and	r2,r3,r2
   80738:	e0bff715 	stw	r2,-36(fp)
   8073c:	00011106 	br	80b84 <main+0x8f4>
				}

				// Bas
				else if(position_y >= 480)
   80740:	0150fc34 	movhi	r5,17392
   80744:	e13ff517 	ldw	r4,-44(fp)
   80748:	0081b900 	call	81b90 <__gesf2>
   8074c:	10000916 	blt	r2,zero,80774 <main+0x4e4>
				{
					IOWR(PERDU_BASE,0,1) ;
   80750:	00c00044 	movi	r3,1
   80754:	00800434 	movhi	r2,16
   80758:	10843404 	addi	r2,r2,4304
   8075c:	10c00035 	stwio	r3,0(r2)
					IOWR(PERDU_BASE,0,0) ;
   80760:	0007883a 	mov	r3,zero
   80764:	00800434 	movhi	r2,16
   80768:	10843404 	addi	r2,r2,4304
   8076c:	10c00035 	stwio	r3,0(r2)
   80770:	00010406 	br	80b84 <main+0x8f4>

					//vitesse_y = -fabs(vitesse_y) ;
				}

				// Gauche
				else if (position_x <= 0)
   80774:	000b883a 	mov	r5,zero
   80778:	e13ff417 	ldw	r4,-48(fp)
   8077c:	0081c4c0 	call	81c4c <__lesf2>
   80780:	00800616 	blt	zero,r2,8079c <main+0x50c>
				{
					vitesse_x = fabs(vitesse_x) ;
   80784:	e0fff617 	ldw	r3,-40(fp)
   80788:	00a00034 	movhi	r2,32768
   8078c:	10bfffc4 	addi	r2,r2,-1
   80790:	1884703a 	and	r2,r3,r2
   80794:	e0bff615 	stw	r2,-40(fp)
   80798:	0000fa06 	br	80b84 <main+0x8f4>
				}

				// Droite
				else if (position_x >= 620)
   8079c:	015106f4 	movhi	r5,17435
   807a0:	e13ff417 	ldw	r4,-48(fp)
   807a4:	0081b900 	call	81b90 <__gesf2>
   807a8:	10000716 	blt	r2,zero,807c8 <main+0x538>
				{
					vitesse_x = -fabs(vitesse_x) ;
   807ac:	e0fff617 	ldw	r3,-40(fp)
   807b0:	00a00034 	movhi	r2,32768
   807b4:	10bfffc4 	addi	r2,r2,-1
   807b8:	1884703a 	and	r2,r3,r2
   807bc:	10a0003c 	xorhi	r2,r2,32768
   807c0:	e0bff615 	stw	r2,-40(fp)
   807c4:	0000ef06 	br	80b84 <main+0x8f4>
				}


				// Gestion Briques
				else if (position_y < 300)
   807c8:	0150e5b4 	movhi	r5,17302
   807cc:	e13ff517 	ldw	r4,-44(fp)
   807d0:	0081c4c0 	call	81c4c <__lesf2>
   807d4:	1000eb0e 	bge	r2,zero,80b84 <main+0x8f4>
				{

					// Detection par les points centraux des arretes de la balle

					// Haut de la balle
					if(!askBrickMemory((int) position_x + 10, (int) position_y))
   807d8:	e13ff417 	ldw	r4,-48(fp)
   807dc:	00825f40 	call	825f4 <__fixsfsi>
   807e0:	14000284 	addi	r16,r2,10
   807e4:	e13ff517 	ldw	r4,-44(fp)
   807e8:	00825f40 	call	825f4 <__fixsfsi>
   807ec:	100b883a 	mov	r5,r2
   807f0:	8009883a 	mov	r4,r16
   807f4:	0080c000 	call	80c00 <askBrickMemory>
   807f8:	10803fcc 	andi	r2,r2,255
   807fc:	1080201c 	xori	r2,r2,128
   80800:	10bfe004 	addi	r2,r2,-128
   80804:	1000061e 	bne	r2,zero,80820 <main+0x590>
					{
						vitesse_y = fabs(vitesse_y);
   80808:	e0fff717 	ldw	r3,-36(fp)
   8080c:	00a00034 	movhi	r2,32768
   80810:	10bfffc4 	addi	r2,r2,-1
   80814:	1884703a 	and	r2,r3,r2
   80818:	e0bff715 	stw	r2,-36(fp)
   8081c:	0000d906 	br	80b84 <main+0x8f4>
					}

					// Bas de la balle
					else if(!askBrickMemory((int) position_x + 10, (int) position_y + 20))
   80820:	e13ff417 	ldw	r4,-48(fp)
   80824:	00825f40 	call	825f4 <__fixsfsi>
   80828:	14000284 	addi	r16,r2,10
   8082c:	e13ff517 	ldw	r4,-44(fp)
   80830:	00825f40 	call	825f4 <__fixsfsi>
   80834:	10800504 	addi	r2,r2,20
   80838:	100b883a 	mov	r5,r2
   8083c:	8009883a 	mov	r4,r16
   80840:	0080c000 	call	80c00 <askBrickMemory>
   80844:	10803fcc 	andi	r2,r2,255
   80848:	1080201c 	xori	r2,r2,128
   8084c:	10bfe004 	addi	r2,r2,-128
   80850:	1000071e 	bne	r2,zero,80870 <main+0x5e0>
					{
						vitesse_y = -fabs(vitesse_y);
   80854:	e0fff717 	ldw	r3,-36(fp)
   80858:	00a00034 	movhi	r2,32768
   8085c:	10bfffc4 	addi	r2,r2,-1
   80860:	1884703a 	and	r2,r3,r2
   80864:	10a0003c 	xorhi	r2,r2,32768
   80868:	e0bff715 	stw	r2,-36(fp)
   8086c:	0000c506 	br	80b84 <main+0x8f4>
					}

					// Gauche de la balle
					else if(!askBrickMemory((int) position_x, (int) position_y + 10))
   80870:	e13ff417 	ldw	r4,-48(fp)
   80874:	00825f40 	call	825f4 <__fixsfsi>
   80878:	1021883a 	mov	r16,r2
   8087c:	e13ff517 	ldw	r4,-44(fp)
   80880:	00825f40 	call	825f4 <__fixsfsi>
   80884:	10800284 	addi	r2,r2,10
   80888:	100b883a 	mov	r5,r2
   8088c:	8009883a 	mov	r4,r16
   80890:	0080c000 	call	80c00 <askBrickMemory>
   80894:	10803fcc 	andi	r2,r2,255
   80898:	1080201c 	xori	r2,r2,128
   8089c:	10bfe004 	addi	r2,r2,-128
   808a0:	1000061e 	bne	r2,zero,808bc <main+0x62c>
					{
						vitesse_x = fabs(vitesse_x);
   808a4:	e0fff617 	ldw	r3,-40(fp)
   808a8:	00a00034 	movhi	r2,32768
   808ac:	10bfffc4 	addi	r2,r2,-1
   808b0:	1884703a 	and	r2,r3,r2
   808b4:	e0bff615 	stw	r2,-40(fp)
   808b8:	0000b206 	br	80b84 <main+0x8f4>
					}

					// Droite de la balle
					else if(!askBrickMemory((int) position_x + 20, (int) position_y + 10))
   808bc:	e13ff417 	ldw	r4,-48(fp)
   808c0:	00825f40 	call	825f4 <__fixsfsi>
   808c4:	14000504 	addi	r16,r2,20
   808c8:	e13ff517 	ldw	r4,-44(fp)
   808cc:	00825f40 	call	825f4 <__fixsfsi>
   808d0:	10800284 	addi	r2,r2,10
   808d4:	100b883a 	mov	r5,r2
   808d8:	8009883a 	mov	r4,r16
   808dc:	0080c000 	call	80c00 <askBrickMemory>
   808e0:	10803fcc 	andi	r2,r2,255
   808e4:	1080201c 	xori	r2,r2,128
   808e8:	10bfe004 	addi	r2,r2,-128
   808ec:	1000071e 	bne	r2,zero,8090c <main+0x67c>
					{
						vitesse_x = -fabs(vitesse_x);
   808f0:	e0fff617 	ldw	r3,-40(fp)
   808f4:	00a00034 	movhi	r2,32768
   808f8:	10bfffc4 	addi	r2,r2,-1
   808fc:	1884703a 	and	r2,r3,r2
   80900:	10a0003c 	xorhi	r2,r2,32768
   80904:	e0bff615 	stw	r2,-40(fp)
   80908:	00009e06 	br	80b84 <main+0x8f4>


					// Detection par les angles de la balle

					// Haut Gauche
					else if(!askBrickMemory((int) position_x + 3, (int) position_y + 3))
   8090c:	e13ff417 	ldw	r4,-48(fp)
   80910:	00825f40 	call	825f4 <__fixsfsi>
   80914:	140000c4 	addi	r16,r2,3
   80918:	e13ff517 	ldw	r4,-44(fp)
   8091c:	00825f40 	call	825f4 <__fixsfsi>
   80920:	108000c4 	addi	r2,r2,3
   80924:	100b883a 	mov	r5,r2
   80928:	8009883a 	mov	r4,r16
   8092c:	0080c000 	call	80c00 <askBrickMemory>
   80930:	10803fcc 	andi	r2,r2,255
   80934:	1080201c 	xori	r2,r2,128
   80938:	10bfe004 	addi	r2,r2,-128
   8093c:	1000191e 	bne	r2,zero,809a4 <main+0x714>
					{
						if(vitesse_x < 0 && vitesse_y < 0)
   80940:	000b883a 	mov	r5,zero
   80944:	e13ff617 	ldw	r4,-40(fp)
   80948:	0081c4c0 	call	81c4c <__lesf2>
   8094c:	10000f0e 	bge	r2,zero,8098c <main+0x6fc>
   80950:	000b883a 	mov	r5,zero
   80954:	e13ff717 	ldw	r4,-36(fp)
   80958:	0081c4c0 	call	81c4c <__lesf2>
   8095c:	10000b0e 	bge	r2,zero,8098c <main+0x6fc>
						{
							vitesse_x = fabs(vitesse_x);
   80960:	e0fff617 	ldw	r3,-40(fp)
   80964:	00a00034 	movhi	r2,32768
   80968:	10bfffc4 	addi	r2,r2,-1
   8096c:	1884703a 	and	r2,r3,r2
   80970:	e0bff615 	stw	r2,-40(fp)
							vitesse_y = fabs(vitesse_y);
   80974:	e0fff717 	ldw	r3,-36(fp)
   80978:	00a00034 	movhi	r2,32768
   8097c:	10bfffc4 	addi	r2,r2,-1
   80980:	1884703a 	and	r2,r3,r2
   80984:	e0bff715 	stw	r2,-36(fp)
   80988:	00007e06 	br	80b84 <main+0x8f4>
						}
						else
						{
							vitesse_x = fabs(vitesse_x);
   8098c:	e0fff617 	ldw	r3,-40(fp)
   80990:	00a00034 	movhi	r2,32768
   80994:	10bfffc4 	addi	r2,r2,-1
   80998:	1884703a 	and	r2,r3,r2
   8099c:	e0bff615 	stw	r2,-40(fp)
   809a0:	00007806 	br	80b84 <main+0x8f4>
						}
					}

					// Haut Droit
					else if(!askBrickMemory((int) position_x + 17, (int) position_y + 3))
   809a4:	e13ff417 	ldw	r4,-48(fp)
   809a8:	00825f40 	call	825f4 <__fixsfsi>
   809ac:	14000444 	addi	r16,r2,17
   809b0:	e13ff517 	ldw	r4,-44(fp)
   809b4:	00825f40 	call	825f4 <__fixsfsi>
   809b8:	108000c4 	addi	r2,r2,3
   809bc:	100b883a 	mov	r5,r2
   809c0:	8009883a 	mov	r4,r16
   809c4:	0080c000 	call	80c00 <askBrickMemory>
   809c8:	10803fcc 	andi	r2,r2,255
   809cc:	1080201c 	xori	r2,r2,128
   809d0:	10bfe004 	addi	r2,r2,-128
   809d4:	10001b1e 	bne	r2,zero,80a44 <main+0x7b4>
					{
						if(vitesse_x > 0 && vitesse_y < 0)
   809d8:	000b883a 	mov	r5,zero
   809dc:	e13ff617 	ldw	r4,-40(fp)
   809e0:	0081b900 	call	81b90 <__gesf2>
   809e4:	0080100e 	bge	zero,r2,80a28 <main+0x798>
   809e8:	000b883a 	mov	r5,zero
   809ec:	e13ff717 	ldw	r4,-36(fp)
   809f0:	0081c4c0 	call	81c4c <__lesf2>
   809f4:	10000c0e 	bge	r2,zero,80a28 <main+0x798>
						{
							vitesse_x = -fabs(vitesse_x);
   809f8:	e0fff617 	ldw	r3,-40(fp)
   809fc:	00a00034 	movhi	r2,32768
   80a00:	10bfffc4 	addi	r2,r2,-1
   80a04:	1884703a 	and	r2,r3,r2
   80a08:	10a0003c 	xorhi	r2,r2,32768
   80a0c:	e0bff615 	stw	r2,-40(fp)
							vitesse_y = fabs(vitesse_y);
   80a10:	e0fff717 	ldw	r3,-36(fp)
   80a14:	00a00034 	movhi	r2,32768
   80a18:	10bfffc4 	addi	r2,r2,-1
   80a1c:	1884703a 	and	r2,r3,r2
   80a20:	e0bff715 	stw	r2,-36(fp)
   80a24:	00005706 	br	80b84 <main+0x8f4>
						}
						else
						{
							vitesse_x = -fabs(vitesse_x);
   80a28:	e0fff617 	ldw	r3,-40(fp)
   80a2c:	00a00034 	movhi	r2,32768
   80a30:	10bfffc4 	addi	r2,r2,-1
   80a34:	1884703a 	and	r2,r3,r2
   80a38:	10a0003c 	xorhi	r2,r2,32768
   80a3c:	e0bff615 	stw	r2,-40(fp)
   80a40:	00005006 	br	80b84 <main+0x8f4>
						}
					}

					// Bas Gauche
					else if(!askBrickMemory((int) position_x + 3, (int) position_y + 17))
   80a44:	e13ff417 	ldw	r4,-48(fp)
   80a48:	00825f40 	call	825f4 <__fixsfsi>
   80a4c:	140000c4 	addi	r16,r2,3
   80a50:	e13ff517 	ldw	r4,-44(fp)
   80a54:	00825f40 	call	825f4 <__fixsfsi>
   80a58:	10800444 	addi	r2,r2,17
   80a5c:	100b883a 	mov	r5,r2
   80a60:	8009883a 	mov	r4,r16
   80a64:	0080c000 	call	80c00 <askBrickMemory>
   80a68:	10803fcc 	andi	r2,r2,255
   80a6c:	1080201c 	xori	r2,r2,128
   80a70:	10bfe004 	addi	r2,r2,-128
   80a74:	10001b1e 	bne	r2,zero,80ae4 <main+0x854>
					{
						if(vitesse_x < 0 && vitesse_y > 0)
   80a78:	000b883a 	mov	r5,zero
   80a7c:	e13ff617 	ldw	r4,-40(fp)
   80a80:	0081c4c0 	call	81c4c <__lesf2>
   80a84:	1000100e 	bge	r2,zero,80ac8 <main+0x838>
   80a88:	000b883a 	mov	r5,zero
   80a8c:	e13ff717 	ldw	r4,-36(fp)
   80a90:	0081b900 	call	81b90 <__gesf2>
   80a94:	00800c0e 	bge	zero,r2,80ac8 <main+0x838>
						{
							vitesse_x = fabs(vitesse_x);
   80a98:	e0fff617 	ldw	r3,-40(fp)
   80a9c:	00a00034 	movhi	r2,32768
   80aa0:	10bfffc4 	addi	r2,r2,-1
   80aa4:	1884703a 	and	r2,r3,r2
   80aa8:	e0bff615 	stw	r2,-40(fp)
							vitesse_y = -fabs(vitesse_y);
   80aac:	e0fff717 	ldw	r3,-36(fp)
   80ab0:	00a00034 	movhi	r2,32768
   80ab4:	10bfffc4 	addi	r2,r2,-1
   80ab8:	1884703a 	and	r2,r3,r2
   80abc:	10a0003c 	xorhi	r2,r2,32768
   80ac0:	e0bff715 	stw	r2,-36(fp)
   80ac4:	00002f06 	br	80b84 <main+0x8f4>
						}
						else
						{
							vitesse_y = -fabs(vitesse_y);
   80ac8:	e0fff717 	ldw	r3,-36(fp)
   80acc:	00a00034 	movhi	r2,32768
   80ad0:	10bfffc4 	addi	r2,r2,-1
   80ad4:	1884703a 	and	r2,r3,r2
   80ad8:	10a0003c 	xorhi	r2,r2,32768
   80adc:	e0bff715 	stw	r2,-36(fp)
   80ae0:	00002806 	br	80b84 <main+0x8f4>
						}
					}

					// Bas Droit
					else if(!askBrickMemory((int) position_x + 17, (int) position_y + 17))
   80ae4:	e13ff417 	ldw	r4,-48(fp)
   80ae8:	00825f40 	call	825f4 <__fixsfsi>
   80aec:	14000444 	addi	r16,r2,17
   80af0:	e13ff517 	ldw	r4,-44(fp)
   80af4:	00825f40 	call	825f4 <__fixsfsi>
   80af8:	10800444 	addi	r2,r2,17
   80afc:	100b883a 	mov	r5,r2
   80b00:	8009883a 	mov	r4,r16
   80b04:	0080c000 	call	80c00 <askBrickMemory>
   80b08:	10803fcc 	andi	r2,r2,255
   80b0c:	1080201c 	xori	r2,r2,128
   80b10:	10bfe004 	addi	r2,r2,-128
   80b14:	10001b1e 	bne	r2,zero,80b84 <main+0x8f4>
					{
						if(vitesse_x > 0 && vitesse_y > 0)
   80b18:	000b883a 	mov	r5,zero
   80b1c:	e13ff617 	ldw	r4,-40(fp)
   80b20:	0081b900 	call	81b90 <__gesf2>
   80b24:	0080110e 	bge	zero,r2,80b6c <main+0x8dc>
   80b28:	000b883a 	mov	r5,zero
   80b2c:	e13ff717 	ldw	r4,-36(fp)
   80b30:	0081b900 	call	81b90 <__gesf2>
   80b34:	00800d0e 	bge	zero,r2,80b6c <main+0x8dc>
						{
							vitesse_x = -fabs(vitesse_x);
   80b38:	e0fff617 	ldw	r3,-40(fp)
   80b3c:	00a00034 	movhi	r2,32768
   80b40:	10bfffc4 	addi	r2,r2,-1
   80b44:	1884703a 	and	r2,r3,r2
   80b48:	10a0003c 	xorhi	r2,r2,32768
   80b4c:	e0bff615 	stw	r2,-40(fp)
							vitesse_y = -fabs(vitesse_y);
   80b50:	e0fff717 	ldw	r3,-36(fp)
   80b54:	00a00034 	movhi	r2,32768
   80b58:	10bfffc4 	addi	r2,r2,-1
   80b5c:	1884703a 	and	r2,r3,r2
   80b60:	10a0003c 	xorhi	r2,r2,32768
   80b64:	e0bff715 	stw	r2,-36(fp)
   80b68:	00000606 	br	80b84 <main+0x8f4>
						}
						else
						{
							vitesse_y = -fabs(vitesse_y);
   80b6c:	e0fff717 	ldw	r3,-36(fp)
   80b70:	00a00034 	movhi	r2,32768
   80b74:	10bfffc4 	addi	r2,r2,-1
   80b78:	1884703a 	and	r2,r3,r2
   80b7c:	10a0003c 	xorhi	r2,r2,32768
   80b80:	e0bff715 	stw	r2,-36(fp)
			printf("vx : %f\n", vitesse_x);
			printf("vy : %f\n\n", vitesse_y);
*/
			//printf("OK");
			// Décomposition de la trajectoire en déplacements élémentaires
			for (int i=0; i<vitesse; i++)
   80b84:	e0bff817 	ldw	r2,-32(fp)
   80b88:	10800044 	addi	r2,r2,1
   80b8c:	e0bff815 	stw	r2,-32(fp)
   80b90:	e13ff817 	ldw	r4,-32(fp)
   80b94:	00826640 	call	82664 <__floatsisf>
   80b98:	1007883a 	mov	r3,r2
   80b9c:	e17ffa17 	ldw	r5,-24(fp)
   80ba0:	1809883a 	mov	r4,r3
   80ba4:	0081c4c0 	call	81c4c <__lesf2>
   80ba8:	103e0716 	blt	r2,zero,803c8 <__alt_data_end+0xfff803c8>
				}

			} // End For(vitesse)

			// Ecriture de la nouvelle position de la balle
			IOWR(X_POSITION_BASE,0,(int) position_x);
   80bac:	e13ff417 	ldw	r4,-48(fp)
   80bb0:	00825f40 	call	825f4 <__fixsfsi>
   80bb4:	1007883a 	mov	r3,r2
   80bb8:	00800434 	movhi	r2,16
   80bbc:	10842804 	addi	r2,r2,4256
   80bc0:	10c00035 	stwio	r3,0(r2)
			IOWR(Y_POSITION_BASE,0,(int) position_y);
   80bc4:	e13ff517 	ldw	r4,-44(fp)
   80bc8:	00825f40 	call	825f4 <__fixsfsi>
   80bcc:	1007883a 	mov	r3,r2
   80bd0:	00800434 	movhi	r2,16
   80bd4:	10842404 	addi	r2,r2,4240
   80bd8:	10c00035 	stwio	r3,0(r2)

			// Impulsion pour signaler la fin de l'actualisation de la position
			IOWR(FINCALCUL_BASE,0,1);
   80bdc:	00c00044 	movi	r3,1
   80be0:	00800434 	movhi	r2,16
   80be4:	10842c04 	addi	r2,r2,4272
   80be8:	10c00035 	stwio	r3,0(r2)
			IOWR(FINCALCUL_BASE,0,0);
   80bec:	0007883a 	mov	r3,zero
   80bf0:	00800434 	movhi	r2,16
   80bf4:	10842c04 	addi	r2,r2,4272
   80bf8:	10c00035 	stwio	r3,0(r2)

	  } // End If(en)
	} // End While(1)
   80bfc:	003dcb06 	br	8032c <__alt_data_end+0xfff8032c>

00080c00 <askBrickMemory>:
} // End main


// Retourne un booléen indiquant si la brique présente au pixel (px_x, px_y) est morte
char askBrickMemory(int px_x, int px_y)
{
   80c00:	defffa04 	addi	sp,sp,-24
   80c04:	dfc00515 	stw	ra,20(sp)
   80c08:	df000415 	stw	fp,16(sp)
   80c0c:	dc000315 	stw	r16,12(sp)
   80c10:	df000404 	addi	fp,sp,16
   80c14:	e13ffd15 	stw	r4,-12(fp)
   80c18:	e17ffe15 	stw	r5,-8(fp)
	IOWR(EN_NIOS_BASE, 0, 1);
   80c1c:	00c00044 	movi	r3,1
   80c20:	00800434 	movhi	r2,16
   80c24:	10843804 	addi	r2,r2,4320
   80c28:	10c00035 	stwio	r3,0(r2)
	IOWR(ADR_BRIQUE_BASE, 0, (px_x / 80) + 8 * (px_y / 40));
   80c2c:	e0bffd17 	ldw	r2,-12(fp)
   80c30:	01401404 	movi	r5,80
   80c34:	1009883a 	mov	r4,r2
   80c38:	00810d40 	call	810d4 <__divsi3>
   80c3c:	1021883a 	mov	r16,r2
   80c40:	e0bffe17 	ldw	r2,-8(fp)
   80c44:	01400a04 	movi	r5,40
   80c48:	1009883a 	mov	r4,r2
   80c4c:	00810d40 	call	810d4 <__divsi3>
   80c50:	100490fa 	slli	r2,r2,3
   80c54:	8087883a 	add	r3,r16,r2
   80c58:	00800434 	movhi	r2,16
   80c5c:	10843c04 	addi	r2,r2,4336
   80c60:	10c00035 	stwio	r3,0(r2)
	char br_morte = IORD(BRIQUE_MORTE_BASE, 0);
   80c64:	00800434 	movhi	r2,16
   80c68:	10844004 	addi	r2,r2,4352
   80c6c:	10800037 	ldwio	r2,0(r2)
   80c70:	e0bffc05 	stb	r2,-16(fp)
	IOWR(EN_NIOS_BASE, 0, 0);
   80c74:	0007883a 	mov	r3,zero
   80c78:	00800434 	movhi	r2,16
   80c7c:	10843804 	addi	r2,r2,4320
   80c80:	10c00035 	stwio	r3,0(r2)
	return br_morte;
   80c84:	e0bffc03 	ldbu	r2,-16(fp)
}
   80c88:	e6ffff04 	addi	sp,fp,-4
   80c8c:	dfc00217 	ldw	ra,8(sp)
   80c90:	df000117 	ldw	fp,4(sp)
   80c94:	dc000017 	ldw	r16,0(sp)
   80c98:	dec00304 	addi	sp,sp,12
   80c9c:	f800283a 	ret

00080ca0 <sqrt>:
   80ca0:	defff104 	addi	sp,sp,-60
   80ca4:	dd000d15 	stw	r20,52(sp)
   80ca8:	05000274 	movhi	r20,9
   80cac:	dcc00c15 	stw	r19,48(sp)
   80cb0:	dc800b15 	stw	r18,44(sp)
   80cb4:	dc400a15 	stw	r17,40(sp)
   80cb8:	dc000915 	stw	r16,36(sp)
   80cbc:	dfc00e15 	stw	ra,56(sp)
   80cc0:	a521f604 	addi	r20,r20,-30760
   80cc4:	2027883a 	mov	r19,r4
   80cc8:	2825883a 	mov	r18,r5
   80ccc:	0080dd00 	call	80dd0 <__ieee754_sqrt>
   80cd0:	1821883a 	mov	r16,r3
   80cd4:	a0c00017 	ldw	r3,0(r20)
   80cd8:	1023883a 	mov	r17,r2
   80cdc:	00bfffc4 	movi	r2,-1
   80ce0:	18800a26 	beq	r3,r2,80d0c <sqrt+0x6c>
   80ce4:	9809883a 	mov	r4,r19
   80ce8:	900b883a 	mov	r5,r18
   80cec:	00810580 	call	81058 <__fpclassifyd>
   80cf0:	10000626 	beq	r2,zero,80d0c <sqrt+0x6c>
   80cf4:	000d883a 	mov	r6,zero
   80cf8:	000f883a 	mov	r7,zero
   80cfc:	9809883a 	mov	r4,r19
   80d00:	900b883a 	mov	r5,r18
   80d04:	008391c0 	call	8391c <__ledf2>
   80d08:	10000a16 	blt	r2,zero,80d34 <sqrt+0x94>
   80d0c:	8805883a 	mov	r2,r17
   80d10:	8007883a 	mov	r3,r16
   80d14:	dfc00e17 	ldw	ra,56(sp)
   80d18:	dd000d17 	ldw	r20,52(sp)
   80d1c:	dcc00c17 	ldw	r19,48(sp)
   80d20:	dc800b17 	ldw	r18,44(sp)
   80d24:	dc400a17 	ldw	r17,40(sp)
   80d28:	dc000917 	ldw	r16,36(sp)
   80d2c:	dec00f04 	addi	sp,sp,60
   80d30:	f800283a 	ret
   80d34:	00800044 	movi	r2,1
   80d38:	d8800015 	stw	r2,0(sp)
   80d3c:	a4000017 	ldw	r16,0(r20)
   80d40:	00800234 	movhi	r2,8
   80d44:	109c1b04 	addi	r2,r2,28780
   80d48:	d8800115 	stw	r2,4(sp)
   80d4c:	d8000815 	stw	zero,32(sp)
   80d50:	dcc00415 	stw	r19,16(sp)
   80d54:	dc800515 	stw	r18,20(sp)
   80d58:	dcc00215 	stw	r19,8(sp)
   80d5c:	dc800315 	stw	r18,12(sp)
   80d60:	80000a1e 	bne	r16,zero,80d8c <sqrt+0xec>
   80d64:	d8000615 	stw	zero,24(sp)
   80d68:	d8000715 	stw	zero,28(sp)
   80d6c:	d809883a 	mov	r4,sp
   80d70:	00810cc0 	call	810cc <matherr>
   80d74:	10000e26 	beq	r2,zero,80db0 <sqrt+0x110>
   80d78:	d8800817 	ldw	r2,32(sp)
   80d7c:	1000101e 	bne	r2,zero,80dc0 <sqrt+0x120>
   80d80:	d8800617 	ldw	r2,24(sp)
   80d84:	d8c00717 	ldw	r3,28(sp)
   80d88:	003fe206 	br	80d14 <__alt_data_end+0xfff80d14>
   80d8c:	000d883a 	mov	r6,zero
   80d90:	000f883a 	mov	r7,zero
   80d94:	0009883a 	mov	r4,zero
   80d98:	000b883a 	mov	r5,zero
   80d9c:	00830340 	call	83034 <__divdf3>
   80da0:	d8800615 	stw	r2,24(sp)
   80da4:	d8c00715 	stw	r3,28(sp)
   80da8:	00800084 	movi	r2,2
   80dac:	80bfef1e 	bne	r16,r2,80d6c <__alt_data_end+0xfff80d6c>
   80db0:	0084e1c0 	call	84e1c <__errno>
   80db4:	00c00844 	movi	r3,33
   80db8:	10c00015 	stw	r3,0(r2)
   80dbc:	003fee06 	br	80d78 <__alt_data_end+0xfff80d78>
   80dc0:	0084e1c0 	call	84e1c <__errno>
   80dc4:	d8c00817 	ldw	r3,32(sp)
   80dc8:	10c00015 	stw	r3,0(r2)
   80dcc:	003fec06 	br	80d80 <__alt_data_end+0xfff80d80>

00080dd0 <__ieee754_sqrt>:
   80dd0:	defffd04 	addi	sp,sp,-12
   80dd4:	dc400115 	stw	r17,4(sp)
   80dd8:	dc000015 	stw	r16,0(sp)
   80ddc:	dfc00215 	stw	ra,8(sp)
   80de0:	28dffc2c 	andhi	r3,r5,32752
   80de4:	009ffc34 	movhi	r2,32752
   80de8:	2821883a 	mov	r16,r5
   80dec:	2023883a 	mov	r17,r4
   80df0:	200d883a 	mov	r6,r4
   80df4:	18807b26 	beq	r3,r2,80fe4 <__ieee754_sqrt+0x214>
   80df8:	01405f0e 	bge	zero,r5,80f78 <__ieee754_sqrt+0x1a8>
   80dfc:	2815d53a 	srai	r10,r5,20
   80e00:	50006a26 	beq	r10,zero,80fac <__ieee754_sqrt+0x1dc>
   80e04:	00c00434 	movhi	r3,16
   80e08:	52bf0044 	addi	r10,r10,-1023
   80e0c:	18ffffc4 	addi	r3,r3,-1
   80e10:	80c6703a 	and	r3,r16,r3
   80e14:	5080004c 	andi	r2,r10,1
   80e18:	18c00434 	orhi	r3,r3,16
   80e1c:	1000511e 	bne	r2,zero,80f64 <__ieee754_sqrt+0x194>
   80e20:	3004d7fa 	srli	r2,r6,31
   80e24:	5015d07a 	srai	r10,r10,1
   80e28:	18c7883a 	add	r3,r3,r3
   80e2c:	10c5883a 	add	r2,r2,r3
   80e30:	01400584 	movi	r5,22
   80e34:	3187883a 	add	r3,r6,r6
   80e38:	0013883a 	mov	r9,zero
   80e3c:	000f883a 	mov	r7,zero
   80e40:	01000834 	movhi	r4,32
   80e44:	390d883a 	add	r6,r7,r4
   80e48:	1810d7fa 	srli	r8,r3,31
   80e4c:	297fffc4 	addi	r5,r5,-1
   80e50:	11800316 	blt	r2,r6,80e60 <__ieee754_sqrt+0x90>
   80e54:	1185c83a 	sub	r2,r2,r6
   80e58:	310f883a 	add	r7,r6,r4
   80e5c:	4913883a 	add	r9,r9,r4
   80e60:	1085883a 	add	r2,r2,r2
   80e64:	4085883a 	add	r2,r8,r2
   80e68:	18c7883a 	add	r3,r3,r3
   80e6c:	2008d07a 	srli	r4,r4,1
   80e70:	283ff41e 	bne	r5,zero,80e44 <__alt_data_end+0xfff80e44>
   80e74:	01200034 	movhi	r4,32768
   80e78:	01800804 	movi	r6,32
   80e7c:	0011883a 	mov	r8,zero
   80e80:	0019883a 	mov	r12,zero
   80e84:	201b883a 	mov	r13,r4
   80e88:	00000806 	br	80eac <__ieee754_sqrt+0xdc>
   80e8c:	38801726 	beq	r7,r2,80eec <__ieee754_sqrt+0x11c>
   80e90:	180ad7fa 	srli	r5,r3,31
   80e94:	1085883a 	add	r2,r2,r2
   80e98:	31bfffc4 	addi	r6,r6,-1
   80e9c:	2885883a 	add	r2,r5,r2
   80ea0:	18c7883a 	add	r3,r3,r3
   80ea4:	2008d07a 	srli	r4,r4,1
   80ea8:	30001726 	beq	r6,zero,80f08 <__ieee754_sqrt+0x138>
   80eac:	230b883a 	add	r5,r4,r12
   80eb0:	38bff60e 	bge	r7,r2,80e8c <__alt_data_end+0xfff80e8c>
   80eb4:	2ae0002c 	andhi	r11,r5,32768
   80eb8:	2919883a 	add	r12,r5,r4
   80ebc:	5b400826 	beq	r11,r13,80ee0 <__ieee754_sqrt+0x110>
   80ec0:	3817883a 	mov	r11,r7
   80ec4:	11c5c83a 	sub	r2,r2,r7
   80ec8:	1940012e 	bgeu	r3,r5,80ed0 <__ieee754_sqrt+0x100>
   80ecc:	10bfffc4 	addi	r2,r2,-1
   80ed0:	1947c83a 	sub	r3,r3,r5
   80ed4:	4111883a 	add	r8,r8,r4
   80ed8:	580f883a 	mov	r7,r11
   80edc:	003fec06 	br	80e90 <__alt_data_end+0xfff80e90>
   80ee0:	603ff716 	blt	r12,zero,80ec0 <__alt_data_end+0xfff80ec0>
   80ee4:	3ac00044 	addi	r11,r7,1
   80ee8:	003ff606 	br	80ec4 <__alt_data_end+0xfff80ec4>
   80eec:	19401936 	bltu	r3,r5,80f54 <__ieee754_sqrt+0x184>
   80ef0:	2ae0002c 	andhi	r11,r5,32768
   80ef4:	2919883a 	add	r12,r5,r4
   80ef8:	5b404526 	beq	r11,r13,81010 <__ieee754_sqrt+0x240>
   80efc:	1017883a 	mov	r11,r2
   80f00:	0005883a 	mov	r2,zero
   80f04:	003ff206 	br	80ed0 <__alt_data_end+0xfff80ed0>
   80f08:	10c4b03a 	or	r2,r2,r3
   80f0c:	10000426 	beq	r2,zero,80f20 <__ieee754_sqrt+0x150>
   80f10:	00bfffc4 	movi	r2,-1
   80f14:	40804026 	beq	r8,r2,81018 <__ieee754_sqrt+0x248>
   80f18:	4080004c 	andi	r2,r8,1
   80f1c:	4091883a 	add	r8,r8,r2
   80f20:	4004d07a 	srli	r2,r8,1
   80f24:	4807d07a 	srai	r3,r9,1
   80f28:	010ff834 	movhi	r4,16352
   80f2c:	4a40004c 	andi	r9,r9,1
   80f30:	1909883a 	add	r4,r3,r4
   80f34:	4800091e 	bne	r9,zero,80f5c <__ieee754_sqrt+0x18c>
   80f38:	5006953a 	slli	r3,r10,20
   80f3c:	1907883a 	add	r3,r3,r4
   80f40:	dfc00217 	ldw	ra,8(sp)
   80f44:	dc400117 	ldw	r17,4(sp)
   80f48:	dc000017 	ldw	r16,0(sp)
   80f4c:	dec00304 	addi	sp,sp,12
   80f50:	f800283a 	ret
   80f54:	3805883a 	mov	r2,r7
   80f58:	003fcd06 	br	80e90 <__alt_data_end+0xfff80e90>
   80f5c:	10a00034 	orhi	r2,r2,32768
   80f60:	003ff506 	br	80f38 <__alt_data_end+0xfff80f38>
   80f64:	3004d7fa 	srli	r2,r6,31
   80f68:	18c7883a 	add	r3,r3,r3
   80f6c:	318d883a 	add	r6,r6,r6
   80f70:	10c7883a 	add	r3,r2,r3
   80f74:	003faa06 	br	80e20 <__alt_data_end+0xfff80e20>
   80f78:	00a00034 	movhi	r2,32768
   80f7c:	10bfffc4 	addi	r2,r2,-1
   80f80:	2884703a 	and	r2,r5,r2
   80f84:	1104b03a 	or	r2,r2,r4
   80f88:	10001e26 	beq	r2,zero,81004 <__ieee754_sqrt+0x234>
   80f8c:	2800291e 	bne	r5,zero,81034 <__ieee754_sqrt+0x264>
   80f90:	0015883a 	mov	r10,zero
   80f94:	3020d2fa 	srli	r16,r6,11
   80f98:	52bffac4 	addi	r10,r10,-21
   80f9c:	300c957a 	slli	r6,r6,21
   80fa0:	803ffc26 	beq	r16,zero,80f94 <__alt_data_end+0xfff80f94>
   80fa4:	8080042c 	andhi	r2,r16,16
   80fa8:	10001e1e 	bne	r2,zero,81024 <__ieee754_sqrt+0x254>
   80fac:	0005883a 	mov	r2,zero
   80fb0:	00000106 	br	80fb8 <__ieee754_sqrt+0x1e8>
   80fb4:	1805883a 	mov	r2,r3
   80fb8:	8421883a 	add	r16,r16,r16
   80fbc:	8100042c 	andhi	r4,r16,16
   80fc0:	10c00044 	addi	r3,r2,1
   80fc4:	203ffb26 	beq	r4,zero,80fb4 <__alt_data_end+0xfff80fb4>
   80fc8:	01000804 	movi	r4,32
   80fcc:	20c9c83a 	sub	r4,r4,r3
   80fd0:	3108d83a 	srl	r4,r6,r4
   80fd4:	5095c83a 	sub	r10,r10,r2
   80fd8:	30cc983a 	sll	r6,r6,r3
   80fdc:	2420b03a 	or	r16,r4,r16
   80fe0:	003f8806 	br	80e04 <__alt_data_end+0xfff80e04>
   80fe4:	280f883a 	mov	r7,r5
   80fe8:	0083a100 	call	83a10 <__muldf3>
   80fec:	880d883a 	mov	r6,r17
   80ff0:	800f883a 	mov	r7,r16
   80ff4:	1009883a 	mov	r4,r2
   80ff8:	180b883a 	mov	r5,r3
   80ffc:	00827880 	call	82788 <__adddf3>
   81000:	003fcf06 	br	80f40 <__alt_data_end+0xfff80f40>
   81004:	2005883a 	mov	r2,r4
   81008:	2807883a 	mov	r3,r5
   8100c:	003fcc06 	br	80f40 <__alt_data_end+0xfff80f40>
   81010:	603fba16 	blt	r12,zero,80efc <__alt_data_end+0xfff80efc>
   81014:	003fb306 	br	80ee4 <__alt_data_end+0xfff80ee4>
   81018:	4a400044 	addi	r9,r9,1
   8101c:	0005883a 	mov	r2,zero
   81020:	003fc006 	br	80f24 <__alt_data_end+0xfff80f24>
   81024:	01000804 	movi	r4,32
   81028:	00bfffc4 	movi	r2,-1
   8102c:	0007883a 	mov	r3,zero
   81030:	003fe706 	br	80fd0 <__alt_data_end+0xfff80fd0>
   81034:	200d883a 	mov	r6,r4
   81038:	280f883a 	mov	r7,r5
   8103c:	00841280 	call	84128 <__subdf3>
   81040:	100d883a 	mov	r6,r2
   81044:	180f883a 	mov	r7,r3
   81048:	1009883a 	mov	r4,r2
   8104c:	180b883a 	mov	r5,r3
   81050:	00830340 	call	83034 <__divdf3>
   81054:	003fba06 	br	80f40 <__alt_data_end+0xfff80f40>

00081058 <__fpclassifyd>:
   81058:	00a00034 	movhi	r2,32768
   8105c:	10bfffc4 	addi	r2,r2,-1
   81060:	2884703a 	and	r2,r5,r2
   81064:	10000726 	beq	r2,zero,81084 <__fpclassifyd+0x2c>
   81068:	00fffc34 	movhi	r3,65520
   8106c:	019ff834 	movhi	r6,32736
   81070:	28c7883a 	add	r3,r5,r3
   81074:	31bfffc4 	addi	r6,r6,-1
   81078:	30c00536 	bltu	r6,r3,81090 <__fpclassifyd+0x38>
   8107c:	00800104 	movi	r2,4
   81080:	f800283a 	ret
   81084:	2000021e 	bne	r4,zero,81090 <__fpclassifyd+0x38>
   81088:	00800084 	movi	r2,2
   8108c:	f800283a 	ret
   81090:	00dffc34 	movhi	r3,32752
   81094:	019ff834 	movhi	r6,32736
   81098:	28cb883a 	add	r5,r5,r3
   8109c:	31bfffc4 	addi	r6,r6,-1
   810a0:	317ff62e 	bgeu	r6,r5,8107c <__alt_data_end+0xfff8107c>
   810a4:	01400434 	movhi	r5,16
   810a8:	297fffc4 	addi	r5,r5,-1
   810ac:	28800236 	bltu	r5,r2,810b8 <__fpclassifyd+0x60>
   810b0:	008000c4 	movi	r2,3
   810b4:	f800283a 	ret
   810b8:	10c00226 	beq	r2,r3,810c4 <__fpclassifyd+0x6c>
   810bc:	0005883a 	mov	r2,zero
   810c0:	f800283a 	ret
   810c4:	2005003a 	cmpeq	r2,r4,zero
   810c8:	f800283a 	ret

000810cc <matherr>:
   810cc:	0005883a 	mov	r2,zero
   810d0:	f800283a 	ret

000810d4 <__divsi3>:
   810d4:	20001b16 	blt	r4,zero,81144 <__divsi3+0x70>
   810d8:	000f883a 	mov	r7,zero
   810dc:	28001616 	blt	r5,zero,81138 <__divsi3+0x64>
   810e0:	200d883a 	mov	r6,r4
   810e4:	29001a2e 	bgeu	r5,r4,81150 <__divsi3+0x7c>
   810e8:	00800804 	movi	r2,32
   810ec:	00c00044 	movi	r3,1
   810f0:	00000106 	br	810f8 <__divsi3+0x24>
   810f4:	10000d26 	beq	r2,zero,8112c <__divsi3+0x58>
   810f8:	294b883a 	add	r5,r5,r5
   810fc:	10bfffc4 	addi	r2,r2,-1
   81100:	18c7883a 	add	r3,r3,r3
   81104:	293ffb36 	bltu	r5,r4,810f4 <__alt_data_end+0xfff810f4>
   81108:	0005883a 	mov	r2,zero
   8110c:	18000726 	beq	r3,zero,8112c <__divsi3+0x58>
   81110:	0005883a 	mov	r2,zero
   81114:	31400236 	bltu	r6,r5,81120 <__divsi3+0x4c>
   81118:	314dc83a 	sub	r6,r6,r5
   8111c:	10c4b03a 	or	r2,r2,r3
   81120:	1806d07a 	srli	r3,r3,1
   81124:	280ad07a 	srli	r5,r5,1
   81128:	183ffa1e 	bne	r3,zero,81114 <__alt_data_end+0xfff81114>
   8112c:	38000126 	beq	r7,zero,81134 <__divsi3+0x60>
   81130:	0085c83a 	sub	r2,zero,r2
   81134:	f800283a 	ret
   81138:	014bc83a 	sub	r5,zero,r5
   8113c:	39c0005c 	xori	r7,r7,1
   81140:	003fe706 	br	810e0 <__alt_data_end+0xfff810e0>
   81144:	0109c83a 	sub	r4,zero,r4
   81148:	01c00044 	movi	r7,1
   8114c:	003fe306 	br	810dc <__alt_data_end+0xfff810dc>
   81150:	00c00044 	movi	r3,1
   81154:	003fee06 	br	81110 <__alt_data_end+0xfff81110>

00081158 <__modsi3>:
   81158:	20001716 	blt	r4,zero,811b8 <__modsi3+0x60>
   8115c:	000f883a 	mov	r7,zero
   81160:	2005883a 	mov	r2,r4
   81164:	28001216 	blt	r5,zero,811b0 <__modsi3+0x58>
   81168:	2900162e 	bgeu	r5,r4,811c4 <__modsi3+0x6c>
   8116c:	01800804 	movi	r6,32
   81170:	00c00044 	movi	r3,1
   81174:	00000106 	br	8117c <__modsi3+0x24>
   81178:	30000a26 	beq	r6,zero,811a4 <__modsi3+0x4c>
   8117c:	294b883a 	add	r5,r5,r5
   81180:	31bfffc4 	addi	r6,r6,-1
   81184:	18c7883a 	add	r3,r3,r3
   81188:	293ffb36 	bltu	r5,r4,81178 <__alt_data_end+0xfff81178>
   8118c:	18000526 	beq	r3,zero,811a4 <__modsi3+0x4c>
   81190:	1806d07a 	srli	r3,r3,1
   81194:	11400136 	bltu	r2,r5,8119c <__modsi3+0x44>
   81198:	1145c83a 	sub	r2,r2,r5
   8119c:	280ad07a 	srli	r5,r5,1
   811a0:	183ffb1e 	bne	r3,zero,81190 <__alt_data_end+0xfff81190>
   811a4:	38000126 	beq	r7,zero,811ac <__modsi3+0x54>
   811a8:	0085c83a 	sub	r2,zero,r2
   811ac:	f800283a 	ret
   811b0:	014bc83a 	sub	r5,zero,r5
   811b4:	003fec06 	br	81168 <__alt_data_end+0xfff81168>
   811b8:	0109c83a 	sub	r4,zero,r4
   811bc:	01c00044 	movi	r7,1
   811c0:	003fe706 	br	81160 <__alt_data_end+0xfff81160>
   811c4:	00c00044 	movi	r3,1
   811c8:	003ff106 	br	81190 <__alt_data_end+0xfff81190>

000811cc <__udivsi3>:
   811cc:	200d883a 	mov	r6,r4
   811d0:	2900152e 	bgeu	r5,r4,81228 <__udivsi3+0x5c>
   811d4:	28001416 	blt	r5,zero,81228 <__udivsi3+0x5c>
   811d8:	00800804 	movi	r2,32
   811dc:	00c00044 	movi	r3,1
   811e0:	00000206 	br	811ec <__udivsi3+0x20>
   811e4:	10000e26 	beq	r2,zero,81220 <__udivsi3+0x54>
   811e8:	28000516 	blt	r5,zero,81200 <__udivsi3+0x34>
   811ec:	294b883a 	add	r5,r5,r5
   811f0:	10bfffc4 	addi	r2,r2,-1
   811f4:	18c7883a 	add	r3,r3,r3
   811f8:	293ffa36 	bltu	r5,r4,811e4 <__alt_data_end+0xfff811e4>
   811fc:	18000826 	beq	r3,zero,81220 <__udivsi3+0x54>
   81200:	0005883a 	mov	r2,zero
   81204:	31400236 	bltu	r6,r5,81210 <__udivsi3+0x44>
   81208:	314dc83a 	sub	r6,r6,r5
   8120c:	10c4b03a 	or	r2,r2,r3
   81210:	1806d07a 	srli	r3,r3,1
   81214:	280ad07a 	srli	r5,r5,1
   81218:	183ffa1e 	bne	r3,zero,81204 <__alt_data_end+0xfff81204>
   8121c:	f800283a 	ret
   81220:	0005883a 	mov	r2,zero
   81224:	f800283a 	ret
   81228:	00c00044 	movi	r3,1
   8122c:	003ff406 	br	81200 <__alt_data_end+0xfff81200>

00081230 <__umodsi3>:
   81230:	2005883a 	mov	r2,r4
   81234:	2900122e 	bgeu	r5,r4,81280 <__umodsi3+0x50>
   81238:	28001116 	blt	r5,zero,81280 <__umodsi3+0x50>
   8123c:	01800804 	movi	r6,32
   81240:	00c00044 	movi	r3,1
   81244:	00000206 	br	81250 <__umodsi3+0x20>
   81248:	30000c26 	beq	r6,zero,8127c <__umodsi3+0x4c>
   8124c:	28000516 	blt	r5,zero,81264 <__umodsi3+0x34>
   81250:	294b883a 	add	r5,r5,r5
   81254:	31bfffc4 	addi	r6,r6,-1
   81258:	18c7883a 	add	r3,r3,r3
   8125c:	293ffa36 	bltu	r5,r4,81248 <__alt_data_end+0xfff81248>
   81260:	18000626 	beq	r3,zero,8127c <__umodsi3+0x4c>
   81264:	1806d07a 	srli	r3,r3,1
   81268:	11400136 	bltu	r2,r5,81270 <__umodsi3+0x40>
   8126c:	1145c83a 	sub	r2,r2,r5
   81270:	280ad07a 	srli	r5,r5,1
   81274:	183ffb1e 	bne	r3,zero,81264 <__alt_data_end+0xfff81264>
   81278:	f800283a 	ret
   8127c:	f800283a 	ret
   81280:	00c00044 	movi	r3,1
   81284:	003ff706 	br	81264 <__alt_data_end+0xfff81264>

00081288 <__addsf3>:
   81288:	defffc04 	addi	sp,sp,-16
   8128c:	2004d7fa 	srli	r2,r4,31
   81290:	280cd5fa 	srli	r6,r5,23
   81294:	dc000015 	stw	r16,0(sp)
   81298:	00c02034 	movhi	r3,128
   8129c:	2020d5fa 	srli	r16,r4,23
   812a0:	280ed7fa 	srli	r7,r5,31
   812a4:	18ffffc4 	addi	r3,r3,-1
   812a8:	dc400115 	stw	r17,4(sp)
   812ac:	1908703a 	and	r4,r3,r4
   812b0:	194a703a 	and	r5,r3,r5
   812b4:	dfc00315 	stw	ra,12(sp)
   812b8:	dc800215 	stw	r18,8(sp)
   812bc:	14403fcc 	andi	r17,r2,255
   812c0:	84003fcc 	andi	r16,r16,255
   812c4:	200890fa 	slli	r4,r4,3
   812c8:	31803fcc 	andi	r6,r6,255
   812cc:	280a90fa 	slli	r5,r5,3
   812d0:	89c05026 	beq	r17,r7,81414 <__addsf3+0x18c>
   812d4:	8185c83a 	sub	r2,r16,r6
   812d8:	00807a0e 	bge	zero,r2,814c4 <__addsf3+0x23c>
   812dc:	30001e1e 	bne	r6,zero,81358 <__addsf3+0xd0>
   812e0:	28006d1e 	bne	r5,zero,81498 <__addsf3+0x210>
   812e4:	208001cc 	andi	r2,r4,7
   812e8:	10000426 	beq	r2,zero,812fc <__addsf3+0x74>
   812ec:	208003cc 	andi	r2,r4,15
   812f0:	00c00104 	movi	r3,4
   812f4:	10c00126 	beq	r2,r3,812fc <__addsf3+0x74>
   812f8:	20c9883a 	add	r4,r4,r3
   812fc:	2081002c 	andhi	r2,r4,1024
   81300:	10003926 	beq	r2,zero,813e8 <__addsf3+0x160>
   81304:	84000044 	addi	r16,r16,1
   81308:	00803fc4 	movi	r2,255
   8130c:	80807826 	beq	r16,r2,814f0 <__addsf3+0x268>
   81310:	200891ba 	slli	r4,r4,6
   81314:	8805883a 	mov	r2,r17
   81318:	2008d27a 	srli	r4,r4,9
   8131c:	84003fcc 	andi	r16,r16,255
   81320:	800695fa 	slli	r3,r16,23
   81324:	10803fcc 	andi	r2,r2,255
   81328:	04002034 	movhi	r16,128
   8132c:	843fffc4 	addi	r16,r16,-1
   81330:	100497fa 	slli	r2,r2,31
   81334:	2408703a 	and	r4,r4,r16
   81338:	20e0b03a 	or	r16,r4,r3
   8133c:	8084b03a 	or	r2,r16,r2
   81340:	dfc00317 	ldw	ra,12(sp)
   81344:	dc800217 	ldw	r18,8(sp)
   81348:	dc400117 	ldw	r17,4(sp)
   8134c:	dc000017 	ldw	r16,0(sp)
   81350:	dec00404 	addi	sp,sp,16
   81354:	f800283a 	ret
   81358:	00c03fc4 	movi	r3,255
   8135c:	80ffe126 	beq	r16,r3,812e4 <__alt_data_end+0xfff812e4>
   81360:	29410034 	orhi	r5,r5,1024
   81364:	00c006c4 	movi	r3,27
   81368:	18807516 	blt	r3,r2,81540 <__addsf3+0x2b8>
   8136c:	00c00804 	movi	r3,32
   81370:	1887c83a 	sub	r3,r3,r2
   81374:	28c6983a 	sll	r3,r5,r3
   81378:	288ad83a 	srl	r5,r5,r2
   8137c:	1804c03a 	cmpne	r2,r3,zero
   81380:	288ab03a 	or	r5,r5,r2
   81384:	2149c83a 	sub	r4,r4,r5
   81388:	2081002c 	andhi	r2,r4,1024
   8138c:	10001426 	beq	r2,zero,813e0 <__addsf3+0x158>
   81390:	04810034 	movhi	r18,1024
   81394:	94bfffc4 	addi	r18,r18,-1
   81398:	24a4703a 	and	r18,r4,r18
   8139c:	9009883a 	mov	r4,r18
   813a0:	0084db80 	call	84db8 <__clzsi2>
   813a4:	10bffec4 	addi	r2,r2,-5
   813a8:	90a4983a 	sll	r18,r18,r2
   813ac:	14005416 	blt	r2,r16,81500 <__addsf3+0x278>
   813b0:	1405c83a 	sub	r2,r2,r16
   813b4:	11000044 	addi	r4,r2,1
   813b8:	00800804 	movi	r2,32
   813bc:	1105c83a 	sub	r2,r2,r4
   813c0:	9084983a 	sll	r2,r18,r2
   813c4:	9124d83a 	srl	r18,r18,r4
   813c8:	0021883a 	mov	r16,zero
   813cc:	1008c03a 	cmpne	r4,r2,zero
   813d0:	9108b03a 	or	r4,r18,r4
   813d4:	003fc306 	br	812e4 <__alt_data_end+0xfff812e4>
   813d8:	1000db26 	beq	r2,zero,81748 <__addsf3+0x4c0>
   813dc:	1009883a 	mov	r4,r2
   813e0:	208001cc 	andi	r2,r4,7
   813e4:	103fc11e 	bne	r2,zero,812ec <__alt_data_end+0xfff812ec>
   813e8:	2006d0fa 	srli	r3,r4,3
   813ec:	01003fc4 	movi	r4,255
   813f0:	8805883a 	mov	r2,r17
   813f4:	8100241e 	bne	r16,r4,81488 <__addsf3+0x200>
   813f8:	18006e26 	beq	r3,zero,815b4 <__addsf3+0x32c>
   813fc:	19001034 	orhi	r4,r3,64
   81400:	00c02034 	movhi	r3,128
   81404:	18ffffc4 	addi	r3,r3,-1
   81408:	043fffc4 	movi	r16,-1
   8140c:	20c8703a 	and	r4,r4,r3
   81410:	003fc206 	br	8131c <__alt_data_end+0xfff8131c>
   81414:	8187c83a 	sub	r3,r16,r6
   81418:	00c03e0e 	bge	zero,r3,81514 <__addsf3+0x28c>
   8141c:	30002326 	beq	r6,zero,814ac <__addsf3+0x224>
   81420:	01803fc4 	movi	r6,255
   81424:	81bfaf26 	beq	r16,r6,812e4 <__alt_data_end+0xfff812e4>
   81428:	29410034 	orhi	r5,r5,1024
   8142c:	018006c4 	movi	r6,27
   81430:	30c07416 	blt	r6,r3,81604 <__addsf3+0x37c>
   81434:	01800804 	movi	r6,32
   81438:	30cdc83a 	sub	r6,r6,r3
   8143c:	298c983a 	sll	r6,r5,r6
   81440:	28cad83a 	srl	r5,r5,r3
   81444:	3006c03a 	cmpne	r3,r6,zero
   81448:	28cab03a 	or	r5,r5,r3
   8144c:	2149883a 	add	r4,r4,r5
   81450:	20c1002c 	andhi	r3,r4,1024
   81454:	183fe226 	beq	r3,zero,813e0 <__alt_data_end+0xfff813e0>
   81458:	84000044 	addi	r16,r16,1
   8145c:	00c03fc4 	movi	r3,255
   81460:	80c05426 	beq	r16,r3,815b4 <__addsf3+0x32c>
   81464:	00bf0034 	movhi	r2,64512
   81468:	10bfffc4 	addi	r2,r2,-1
   8146c:	20c0004c 	andi	r3,r4,1
   81470:	2088703a 	and	r4,r4,r2
   81474:	2008d07a 	srli	r4,r4,1
   81478:	20c8b03a 	or	r4,r4,r3
   8147c:	003f9906 	br	812e4 <__alt_data_end+0xfff812e4>
   81480:	0007883a 	mov	r3,zero
   81484:	0005883a 	mov	r2,zero
   81488:	01002034 	movhi	r4,128
   8148c:	213fffc4 	addi	r4,r4,-1
   81490:	1908703a 	and	r4,r3,r4
   81494:	003fa106 	br	8131c <__alt_data_end+0xfff8131c>
   81498:	10bfffc4 	addi	r2,r2,-1
   8149c:	103fb926 	beq	r2,zero,81384 <__alt_data_end+0xfff81384>
   814a0:	00c03fc4 	movi	r3,255
   814a4:	80ffaf1e 	bne	r16,r3,81364 <__alt_data_end+0xfff81364>
   814a8:	003f8e06 	br	812e4 <__alt_data_end+0xfff812e4>
   814ac:	283f8d26 	beq	r5,zero,812e4 <__alt_data_end+0xfff812e4>
   814b0:	18ffffc4 	addi	r3,r3,-1
   814b4:	183fe526 	beq	r3,zero,8144c <__alt_data_end+0xfff8144c>
   814b8:	01803fc4 	movi	r6,255
   814bc:	81bfdb1e 	bne	r16,r6,8142c <__alt_data_end+0xfff8142c>
   814c0:	003f8806 	br	812e4 <__alt_data_end+0xfff812e4>
   814c4:	1000201e 	bne	r2,zero,81548 <__addsf3+0x2c0>
   814c8:	80800044 	addi	r2,r16,1
   814cc:	10803fcc 	andi	r2,r2,255
   814d0:	01800044 	movi	r6,1
   814d4:	3080450e 	bge	r6,r2,815ec <__addsf3+0x364>
   814d8:	2165c83a 	sub	r18,r4,r5
   814dc:	90c1002c 	andhi	r3,r18,1024
   814e0:	18002b26 	beq	r3,zero,81590 <__addsf3+0x308>
   814e4:	2925c83a 	sub	r18,r5,r4
   814e8:	3823883a 	mov	r17,r7
   814ec:	003fab06 	br	8139c <__alt_data_end+0xfff8139c>
   814f0:	8805883a 	mov	r2,r17
   814f4:	043fffc4 	movi	r16,-1
   814f8:	0009883a 	mov	r4,zero
   814fc:	003f8706 	br	8131c <__alt_data_end+0xfff8131c>
   81500:	013f0034 	movhi	r4,64512
   81504:	213fffc4 	addi	r4,r4,-1
   81508:	80a1c83a 	sub	r16,r16,r2
   8150c:	9108703a 	and	r4,r18,r4
   81510:	003f7406 	br	812e4 <__alt_data_end+0xfff812e4>
   81514:	1800411e 	bne	r3,zero,8161c <__addsf3+0x394>
   81518:	80c00044 	addi	r3,r16,1
   8151c:	19c03fcc 	andi	r7,r3,255
   81520:	01800044 	movi	r6,1
   81524:	31c0260e 	bge	r6,r7,815c0 <__addsf3+0x338>
   81528:	01803fc4 	movi	r6,255
   8152c:	19802126 	beq	r3,r6,815b4 <__addsf3+0x32c>
   81530:	2149883a 	add	r4,r4,r5
   81534:	2008d07a 	srli	r4,r4,1
   81538:	1821883a 	mov	r16,r3
   8153c:	003f6906 	br	812e4 <__alt_data_end+0xfff812e4>
   81540:	01400044 	movi	r5,1
   81544:	003f8f06 	br	81384 <__alt_data_end+0xfff81384>
   81548:	8000151e 	bne	r16,zero,815a0 <__addsf3+0x318>
   8154c:	20002f26 	beq	r4,zero,8160c <__addsf3+0x384>
   81550:	0084303a 	nor	r2,zero,r2
   81554:	10000a26 	beq	r2,zero,81580 <__addsf3+0x2f8>
   81558:	00c03fc4 	movi	r3,255
   8155c:	30c02b26 	beq	r6,r3,8160c <__addsf3+0x384>
   81560:	00c006c4 	movi	r3,27
   81564:	18806d16 	blt	r3,r2,8171c <__addsf3+0x494>
   81568:	00c00804 	movi	r3,32
   8156c:	1887c83a 	sub	r3,r3,r2
   81570:	20c6983a 	sll	r3,r4,r3
   81574:	2084d83a 	srl	r2,r4,r2
   81578:	1808c03a 	cmpne	r4,r3,zero
   8157c:	1108b03a 	or	r4,r2,r4
   81580:	2909c83a 	sub	r4,r5,r4
   81584:	3021883a 	mov	r16,r6
   81588:	3823883a 	mov	r17,r7
   8158c:	003f7e06 	br	81388 <__alt_data_end+0xfff81388>
   81590:	903f821e 	bne	r18,zero,8139c <__alt_data_end+0xfff8139c>
   81594:	0005883a 	mov	r2,zero
   81598:	0021883a 	mov	r16,zero
   8159c:	003fba06 	br	81488 <__alt_data_end+0xfff81488>
   815a0:	00c03fc4 	movi	r3,255
   815a4:	30c01926 	beq	r6,r3,8160c <__addsf3+0x384>
   815a8:	0085c83a 	sub	r2,zero,r2
   815ac:	21010034 	orhi	r4,r4,1024
   815b0:	003feb06 	br	81560 <__alt_data_end+0xfff81560>
   815b4:	043fffc4 	movi	r16,-1
   815b8:	0009883a 	mov	r4,zero
   815bc:	003f5706 	br	8131c <__alt_data_end+0xfff8131c>
   815c0:	80004a1e 	bne	r16,zero,816ec <__addsf3+0x464>
   815c4:	20005926 	beq	r4,zero,8172c <__addsf3+0x4a4>
   815c8:	283f4626 	beq	r5,zero,812e4 <__alt_data_end+0xfff812e4>
   815cc:	2149883a 	add	r4,r4,r5
   815d0:	2081002c 	andhi	r2,r4,1024
   815d4:	103f8226 	beq	r2,zero,813e0 <__alt_data_end+0xfff813e0>
   815d8:	00bf0034 	movhi	r2,64512
   815dc:	10bfffc4 	addi	r2,r2,-1
   815e0:	3021883a 	mov	r16,r6
   815e4:	2088703a 	and	r4,r4,r2
   815e8:	003f3e06 	br	812e4 <__alt_data_end+0xfff812e4>
   815ec:	8000121e 	bne	r16,zero,81638 <__addsf3+0x3b0>
   815f0:	2000261e 	bne	r4,zero,8168c <__addsf3+0x404>
   815f4:	283fa226 	beq	r5,zero,81480 <__alt_data_end+0xfff81480>
   815f8:	2809883a 	mov	r4,r5
   815fc:	3823883a 	mov	r17,r7
   81600:	003f3806 	br	812e4 <__alt_data_end+0xfff812e4>
   81604:	01400044 	movi	r5,1
   81608:	003f9006 	br	8144c <__alt_data_end+0xfff8144c>
   8160c:	2809883a 	mov	r4,r5
   81610:	3021883a 	mov	r16,r6
   81614:	3823883a 	mov	r17,r7
   81618:	003f3206 	br	812e4 <__alt_data_end+0xfff812e4>
   8161c:	80000c1e 	bne	r16,zero,81650 <__addsf3+0x3c8>
   81620:	20002f26 	beq	r4,zero,816e0 <__addsf3+0x458>
   81624:	00c6303a 	nor	r3,zero,r3
   81628:	18002b1e 	bne	r3,zero,816d8 <__addsf3+0x450>
   8162c:	2149883a 	add	r4,r4,r5
   81630:	3021883a 	mov	r16,r6
   81634:	003f8606 	br	81450 <__alt_data_end+0xfff81450>
   81638:	20001b1e 	bne	r4,zero,816a8 <__addsf3+0x420>
   8163c:	28003926 	beq	r5,zero,81724 <__addsf3+0x49c>
   81640:	2809883a 	mov	r4,r5
   81644:	3823883a 	mov	r17,r7
   81648:	04003fc4 	movi	r16,255
   8164c:	003f2506 	br	812e4 <__alt_data_end+0xfff812e4>
   81650:	01c03fc4 	movi	r7,255
   81654:	31c02226 	beq	r6,r7,816e0 <__addsf3+0x458>
   81658:	00c7c83a 	sub	r3,zero,r3
   8165c:	21010034 	orhi	r4,r4,1024
   81660:	01c006c4 	movi	r7,27
   81664:	38c03616 	blt	r7,r3,81740 <__addsf3+0x4b8>
   81668:	01c00804 	movi	r7,32
   8166c:	38cfc83a 	sub	r7,r7,r3
   81670:	21ce983a 	sll	r7,r4,r7
   81674:	20c6d83a 	srl	r3,r4,r3
   81678:	3808c03a 	cmpne	r4,r7,zero
   8167c:	1906b03a 	or	r3,r3,r4
   81680:	1949883a 	add	r4,r3,r5
   81684:	3021883a 	mov	r16,r6
   81688:	003f7106 	br	81450 <__alt_data_end+0xfff81450>
   8168c:	283f1526 	beq	r5,zero,812e4 <__alt_data_end+0xfff812e4>
   81690:	2145c83a 	sub	r2,r4,r5
   81694:	10c1002c 	andhi	r3,r2,1024
   81698:	183f4f26 	beq	r3,zero,813d8 <__alt_data_end+0xfff813d8>
   8169c:	2909c83a 	sub	r4,r5,r4
   816a0:	3823883a 	mov	r17,r7
   816a4:	003f0f06 	br	812e4 <__alt_data_end+0xfff812e4>
   816a8:	28001a26 	beq	r5,zero,81714 <__addsf3+0x48c>
   816ac:	2008d0fa 	srli	r4,r4,3
   816b0:	2080102c 	andhi	r2,r4,64
   816b4:	10000526 	beq	r2,zero,816cc <__addsf3+0x444>
   816b8:	280ad0fa 	srli	r5,r5,3
   816bc:	2880102c 	andhi	r2,r5,64
   816c0:	1000021e 	bne	r2,zero,816cc <__addsf3+0x444>
   816c4:	2809883a 	mov	r4,r5
   816c8:	3823883a 	mov	r17,r7
   816cc:	200890fa 	slli	r4,r4,3
   816d0:	04003fc4 	movi	r16,255
   816d4:	003f0306 	br	812e4 <__alt_data_end+0xfff812e4>
   816d8:	01c03fc4 	movi	r7,255
   816dc:	31ffe01e 	bne	r6,r7,81660 <__alt_data_end+0xfff81660>
   816e0:	2809883a 	mov	r4,r5
   816e4:	3021883a 	mov	r16,r6
   816e8:	003efe06 	br	812e4 <__alt_data_end+0xfff812e4>
   816ec:	20001126 	beq	r4,zero,81734 <__addsf3+0x4ac>
   816f0:	28000826 	beq	r5,zero,81714 <__addsf3+0x48c>
   816f4:	2008d0fa 	srli	r4,r4,3
   816f8:	2080102c 	andhi	r2,r4,64
   816fc:	103ff326 	beq	r2,zero,816cc <__alt_data_end+0xfff816cc>
   81700:	280ad0fa 	srli	r5,r5,3
   81704:	2880102c 	andhi	r2,r5,64
   81708:	103ff01e 	bne	r2,zero,816cc <__alt_data_end+0xfff816cc>
   8170c:	2809883a 	mov	r4,r5
   81710:	003fee06 	br	816cc <__alt_data_end+0xfff816cc>
   81714:	04003fc4 	movi	r16,255
   81718:	003ef206 	br	812e4 <__alt_data_end+0xfff812e4>
   8171c:	01000044 	movi	r4,1
   81720:	003f9706 	br	81580 <__alt_data_end+0xfff81580>
   81724:	0005883a 	mov	r2,zero
   81728:	003f3406 	br	813fc <__alt_data_end+0xfff813fc>
   8172c:	2809883a 	mov	r4,r5
   81730:	003eec06 	br	812e4 <__alt_data_end+0xfff812e4>
   81734:	2809883a 	mov	r4,r5
   81738:	04003fc4 	movi	r16,255
   8173c:	003ee906 	br	812e4 <__alt_data_end+0xfff812e4>
   81740:	00c00044 	movi	r3,1
   81744:	003fce06 	br	81680 <__alt_data_end+0xfff81680>
   81748:	0005883a 	mov	r2,zero
   8174c:	003f4e06 	br	81488 <__alt_data_end+0xfff81488>

00081750 <__divsf3>:
   81750:	defff504 	addi	sp,sp,-44
   81754:	200cd5fa 	srli	r6,r4,23
   81758:	dcc00415 	stw	r19,16(sp)
   8175c:	2026d7fa 	srli	r19,r4,31
   81760:	00c02034 	movhi	r3,128
   81764:	dd800715 	stw	r22,28(sp)
   81768:	dd000515 	stw	r20,20(sp)
   8176c:	dc800315 	stw	r18,12(sp)
   81770:	18ffffc4 	addi	r3,r3,-1
   81774:	dfc00a15 	stw	ra,40(sp)
   81778:	df000915 	stw	fp,36(sp)
   8177c:	ddc00815 	stw	r23,32(sp)
   81780:	dd400615 	stw	r21,24(sp)
   81784:	dc400215 	stw	r17,8(sp)
   81788:	dc000115 	stw	r16,4(sp)
   8178c:	35003fcc 	andi	r20,r6,255
   81790:	1924703a 	and	r18,r3,r4
   81794:	9d803fcc 	andi	r22,r19,255
   81798:	a0005226 	beq	r20,zero,818e4 <__divsf3+0x194>
   8179c:	00803fc4 	movi	r2,255
   817a0:	a0802e26 	beq	r20,r2,8185c <__divsf3+0x10c>
   817a4:	91002034 	orhi	r4,r18,128
   817a8:	202490fa 	slli	r18,r4,3
   817ac:	a53fe044 	addi	r20,r20,-127
   817b0:	0021883a 	mov	r16,zero
   817b4:	002f883a 	mov	r23,zero
   817b8:	280cd5fa 	srli	r6,r5,23
   817bc:	282ad7fa 	srli	r21,r5,31
   817c0:	00c02034 	movhi	r3,128
   817c4:	18ffffc4 	addi	r3,r3,-1
   817c8:	31803fcc 	andi	r6,r6,255
   817cc:	1962703a 	and	r17,r3,r5
   817d0:	af003fcc 	andi	fp,r21,255
   817d4:	30004a26 	beq	r6,zero,81900 <__divsf3+0x1b0>
   817d8:	00803fc4 	movi	r2,255
   817dc:	30804526 	beq	r6,r2,818f4 <__divsf3+0x1a4>
   817e0:	89402034 	orhi	r5,r17,128
   817e4:	282290fa 	slli	r17,r5,3
   817e8:	31bfe044 	addi	r6,r6,-127
   817ec:	000b883a 	mov	r5,zero
   817f0:	2c20b03a 	or	r16,r5,r16
   817f4:	802090ba 	slli	r16,r16,2
   817f8:	00800234 	movhi	r2,8
   817fc:	10860704 	addi	r2,r2,6172
   81800:	80a1883a 	add	r16,r16,r2
   81804:	81000017 	ldw	r4,0(r16)
   81808:	9d46f03a 	xor	r3,r19,r21
   8180c:	180f883a 	mov	r7,r3
   81810:	18803fcc 	andi	r2,r3,255
   81814:	a18dc83a 	sub	r6,r20,r6
   81818:	2000683a 	jmp	r4
   8181c:	00081a00 	call	81a0 <__reset-0x77e60>
   81820:	00081884 	movi	zero,8290
   81824:	000819f4 	movhi	zero,8295
   81828:	00081870 	cmpltui	zero,zero,8289
   8182c:	000819f4 	movhi	zero,8295
   81830:	000819cc 	andi	zero,zero,8295
   81834:	000819f4 	movhi	zero,8295
   81838:	00081870 	cmpltui	zero,zero,8289
   8183c:	00081884 	movi	zero,8290
   81840:	00081884 	movi	zero,8290
   81844:	000819cc 	andi	zero,zero,8295
   81848:	00081870 	cmpltui	zero,zero,8289
   8184c:	00081ae0 	cmpeqi	zero,zero,8299
   81850:	00081ae0 	cmpeqi	zero,zero,8299
   81854:	00081ae0 	cmpeqi	zero,zero,8299
   81858:	00081a94 	movui	zero,8298
   8185c:	9000581e 	bne	r18,zero,819c0 <__divsf3+0x270>
   81860:	04000204 	movi	r16,8
   81864:	05c00084 	movi	r23,2
   81868:	003fd306 	br	817b8 <__alt_data_end+0xfff817b8>
   8186c:	0023883a 	mov	r17,zero
   81870:	e02d883a 	mov	r22,fp
   81874:	282f883a 	mov	r23,r5
   81878:	00800084 	movi	r2,2
   8187c:	b8808f1e 	bne	r23,r2,81abc <__divsf3+0x36c>
   81880:	b005883a 	mov	r2,r22
   81884:	11c0004c 	andi	r7,r2,1
   81888:	013fffc4 	movi	r4,-1
   8188c:	000d883a 	mov	r6,zero
   81890:	21003fcc 	andi	r4,r4,255
   81894:	200895fa 	slli	r4,r4,23
   81898:	38803fcc 	andi	r2,r7,255
   8189c:	00c02034 	movhi	r3,128
   818a0:	100497fa 	slli	r2,r2,31
   818a4:	18ffffc4 	addi	r3,r3,-1
   818a8:	30c6703a 	and	r3,r6,r3
   818ac:	1906b03a 	or	r3,r3,r4
   818b0:	1884b03a 	or	r2,r3,r2
   818b4:	dfc00a17 	ldw	ra,40(sp)
   818b8:	df000917 	ldw	fp,36(sp)
   818bc:	ddc00817 	ldw	r23,32(sp)
   818c0:	dd800717 	ldw	r22,28(sp)
   818c4:	dd400617 	ldw	r21,24(sp)
   818c8:	dd000517 	ldw	r20,20(sp)
   818cc:	dcc00417 	ldw	r19,16(sp)
   818d0:	dc800317 	ldw	r18,12(sp)
   818d4:	dc400217 	ldw	r17,8(sp)
   818d8:	dc000117 	ldw	r16,4(sp)
   818dc:	dec00b04 	addi	sp,sp,44
   818e0:	f800283a 	ret
   818e4:	90002b1e 	bne	r18,zero,81994 <__divsf3+0x244>
   818e8:	04000104 	movi	r16,4
   818ec:	05c00044 	movi	r23,1
   818f0:	003fb106 	br	817b8 <__alt_data_end+0xfff817b8>
   818f4:	8800251e 	bne	r17,zero,8198c <__divsf3+0x23c>
   818f8:	01400084 	movi	r5,2
   818fc:	00000206 	br	81908 <__divsf3+0x1b8>
   81900:	88001a1e 	bne	r17,zero,8196c <__divsf3+0x21c>
   81904:	01400044 	movi	r5,1
   81908:	8160b03a 	or	r16,r16,r5
   8190c:	802090ba 	slli	r16,r16,2
   81910:	00c00234 	movhi	r3,8
   81914:	18c64b04 	addi	r3,r3,6444
   81918:	80e1883a 	add	r16,r16,r3
   8191c:	80c00017 	ldw	r3,0(r16)
   81920:	9d44f03a 	xor	r2,r19,r21
   81924:	a18dc83a 	sub	r6,r20,r6
   81928:	1800683a 	jmp	r3
   8192c:	00081884 	movi	zero,8290
   81930:	00081884 	movi	zero,8290
   81934:	00081ad0 	cmplti	zero,zero,8299
   81938:	0008186c 	andhi	zero,zero,8289
   8193c:	00081ad0 	cmplti	zero,zero,8299
   81940:	000819cc 	andi	zero,zero,8295
   81944:	00081ad0 	cmplti	zero,zero,8299
   81948:	0008186c 	andhi	zero,zero,8289
   8194c:	00081884 	movi	zero,8290
   81950:	00081884 	movi	zero,8290
   81954:	000819cc 	andi	zero,zero,8295
   81958:	0008186c 	andhi	zero,zero,8289
   8195c:	00081ae0 	cmpeqi	zero,zero,8299
   81960:	00081ae0 	cmpeqi	zero,zero,8299
   81964:	00081ae0 	cmpeqi	zero,zero,8299
   81968:	00081af8 	rdprs	zero,zero,8299
   8196c:	8809883a 	mov	r4,r17
   81970:	0084db80 	call	84db8 <__clzsi2>
   81974:	10fffec4 	addi	r3,r2,-5
   81978:	10801d84 	addi	r2,r2,118
   8197c:	88e2983a 	sll	r17,r17,r3
   81980:	008dc83a 	sub	r6,zero,r2
   81984:	000b883a 	mov	r5,zero
   81988:	003f9906 	br	817f0 <__alt_data_end+0xfff817f0>
   8198c:	014000c4 	movi	r5,3
   81990:	003f9706 	br	817f0 <__alt_data_end+0xfff817f0>
   81994:	9009883a 	mov	r4,r18
   81998:	d9400015 	stw	r5,0(sp)
   8199c:	0084db80 	call	84db8 <__clzsi2>
   819a0:	10fffec4 	addi	r3,r2,-5
   819a4:	11801d84 	addi	r6,r2,118
   819a8:	90e4983a 	sll	r18,r18,r3
   819ac:	01a9c83a 	sub	r20,zero,r6
   819b0:	0021883a 	mov	r16,zero
   819b4:	002f883a 	mov	r23,zero
   819b8:	d9400017 	ldw	r5,0(sp)
   819bc:	003f7e06 	br	817b8 <__alt_data_end+0xfff817b8>
   819c0:	04000304 	movi	r16,12
   819c4:	05c000c4 	movi	r23,3
   819c8:	003f7b06 	br	817b8 <__alt_data_end+0xfff817b8>
   819cc:	01802034 	movhi	r6,128
   819d0:	000f883a 	mov	r7,zero
   819d4:	31bfffc4 	addi	r6,r6,-1
   819d8:	013fffc4 	movi	r4,-1
   819dc:	003fac06 	br	81890 <__alt_data_end+0xfff81890>
   819e0:	01400044 	movi	r5,1
   819e4:	2909c83a 	sub	r4,r5,r4
   819e8:	00c006c4 	movi	r3,27
   819ec:	19004b0e 	bge	r3,r4,81b1c <__divsf3+0x3cc>
   819f0:	114e703a 	and	r7,r2,r5
   819f4:	0009883a 	mov	r4,zero
   819f8:	000d883a 	mov	r6,zero
   819fc:	003fa406 	br	81890 <__alt_data_end+0xfff81890>
   81a00:	9006917a 	slli	r3,r18,5
   81a04:	8822917a 	slli	r17,r17,5
   81a08:	1c40372e 	bgeu	r3,r17,81ae8 <__divsf3+0x398>
   81a0c:	31bfffc4 	addi	r6,r6,-1
   81a10:	010006c4 	movi	r4,27
   81a14:	000b883a 	mov	r5,zero
   81a18:	180f883a 	mov	r7,r3
   81a1c:	294b883a 	add	r5,r5,r5
   81a20:	18c7883a 	add	r3,r3,r3
   81a24:	38000116 	blt	r7,zero,81a2c <__divsf3+0x2dc>
   81a28:	1c400236 	bltu	r3,r17,81a34 <__divsf3+0x2e4>
   81a2c:	1c47c83a 	sub	r3,r3,r17
   81a30:	29400054 	ori	r5,r5,1
   81a34:	213fffc4 	addi	r4,r4,-1
   81a38:	203ff71e 	bne	r4,zero,81a18 <__alt_data_end+0xfff81a18>
   81a3c:	1806c03a 	cmpne	r3,r3,zero
   81a40:	1962b03a 	or	r17,r3,r5
   81a44:	31001fc4 	addi	r4,r6,127
   81a48:	013fe50e 	bge	zero,r4,819e0 <__alt_data_end+0xfff819e0>
   81a4c:	88c001cc 	andi	r3,r17,7
   81a50:	18000426 	beq	r3,zero,81a64 <__divsf3+0x314>
   81a54:	88c003cc 	andi	r3,r17,15
   81a58:	01400104 	movi	r5,4
   81a5c:	19400126 	beq	r3,r5,81a64 <__divsf3+0x314>
   81a60:	8963883a 	add	r17,r17,r5
   81a64:	88c2002c 	andhi	r3,r17,2048
   81a68:	18000426 	beq	r3,zero,81a7c <__divsf3+0x32c>
   81a6c:	00fe0034 	movhi	r3,63488
   81a70:	18ffffc4 	addi	r3,r3,-1
   81a74:	31002004 	addi	r4,r6,128
   81a78:	88e2703a 	and	r17,r17,r3
   81a7c:	00c03f84 	movi	r3,254
   81a80:	193f8016 	blt	r3,r4,81884 <__alt_data_end+0xfff81884>
   81a84:	880c91ba 	slli	r6,r17,6
   81a88:	11c0004c 	andi	r7,r2,1
   81a8c:	300cd27a 	srli	r6,r6,9
   81a90:	003f7f06 	br	81890 <__alt_data_end+0xfff81890>
   81a94:	9080102c 	andhi	r2,r18,64
   81a98:	10000226 	beq	r2,zero,81aa4 <__divsf3+0x354>
   81a9c:	8880102c 	andhi	r2,r17,64
   81aa0:	10001826 	beq	r2,zero,81b04 <__divsf3+0x3b4>
   81aa4:	00802034 	movhi	r2,128
   81aa8:	91801034 	orhi	r6,r18,64
   81aac:	10bfffc4 	addi	r2,r2,-1
   81ab0:	980f883a 	mov	r7,r19
   81ab4:	308c703a 	and	r6,r6,r2
   81ab8:	003fc706 	br	819d8 <__alt_data_end+0xfff819d8>
   81abc:	008000c4 	movi	r2,3
   81ac0:	b8802d26 	beq	r23,r2,81b78 <__divsf3+0x428>
   81ac4:	00c00044 	movi	r3,1
   81ac8:	b005883a 	mov	r2,r22
   81acc:	b8ffdd1e 	bne	r23,r3,81a44 <__alt_data_end+0xfff81a44>
   81ad0:	11c0004c 	andi	r7,r2,1
   81ad4:	0009883a 	mov	r4,zero
   81ad8:	000d883a 	mov	r6,zero
   81adc:	003f6c06 	br	81890 <__alt_data_end+0xfff81890>
   81ae0:	9023883a 	mov	r17,r18
   81ae4:	003f6406 	br	81878 <__alt_data_end+0xfff81878>
   81ae8:	1c47c83a 	sub	r3,r3,r17
   81aec:	01000684 	movi	r4,26
   81af0:	01400044 	movi	r5,1
   81af4:	003fc806 	br	81a18 <__alt_data_end+0xfff81a18>
   81af8:	9080102c 	andhi	r2,r18,64
   81afc:	103fe926 	beq	r2,zero,81aa4 <__alt_data_end+0xfff81aa4>
   81b00:	0023883a 	mov	r17,zero
   81b04:	00802034 	movhi	r2,128
   81b08:	89801034 	orhi	r6,r17,64
   81b0c:	10bfffc4 	addi	r2,r2,-1
   81b10:	a80f883a 	mov	r7,r21
   81b14:	308c703a 	and	r6,r6,r2
   81b18:	003faf06 	br	819d8 <__alt_data_end+0xfff819d8>
   81b1c:	01c00804 	movi	r7,32
   81b20:	390fc83a 	sub	r7,r7,r4
   81b24:	89ce983a 	sll	r7,r17,r7
   81b28:	890ad83a 	srl	r5,r17,r4
   81b2c:	380ec03a 	cmpne	r7,r7,zero
   81b30:	29cab03a 	or	r5,r5,r7
   81b34:	28c001cc 	andi	r3,r5,7
   81b38:	18000426 	beq	r3,zero,81b4c <__divsf3+0x3fc>
   81b3c:	28c003cc 	andi	r3,r5,15
   81b40:	01000104 	movi	r4,4
   81b44:	19000126 	beq	r3,r4,81b4c <__divsf3+0x3fc>
   81b48:	290b883a 	add	r5,r5,r4
   81b4c:	28c1002c 	andhi	r3,r5,1024
   81b50:	18000426 	beq	r3,zero,81b64 <__divsf3+0x414>
   81b54:	11c0004c 	andi	r7,r2,1
   81b58:	01000044 	movi	r4,1
   81b5c:	000d883a 	mov	r6,zero
   81b60:	003f4b06 	br	81890 <__alt_data_end+0xfff81890>
   81b64:	280a91ba 	slli	r5,r5,6
   81b68:	11c0004c 	andi	r7,r2,1
   81b6c:	0009883a 	mov	r4,zero
   81b70:	280cd27a 	srli	r6,r5,9
   81b74:	003f4606 	br	81890 <__alt_data_end+0xfff81890>
   81b78:	00802034 	movhi	r2,128
   81b7c:	89801034 	orhi	r6,r17,64
   81b80:	10bfffc4 	addi	r2,r2,-1
   81b84:	b00f883a 	mov	r7,r22
   81b88:	308c703a 	and	r6,r6,r2
   81b8c:	003f9206 	br	819d8 <__alt_data_end+0xfff819d8>

00081b90 <__gesf2>:
   81b90:	2004d5fa 	srli	r2,r4,23
   81b94:	2806d5fa 	srli	r3,r5,23
   81b98:	01802034 	movhi	r6,128
   81b9c:	31bfffc4 	addi	r6,r6,-1
   81ba0:	10803fcc 	andi	r2,r2,255
   81ba4:	01c03fc4 	movi	r7,255
   81ba8:	3110703a 	and	r8,r6,r4
   81bac:	18c03fcc 	andi	r3,r3,255
   81bb0:	314c703a 	and	r6,r6,r5
   81bb4:	2008d7fa 	srli	r4,r4,31
   81bb8:	280ad7fa 	srli	r5,r5,31
   81bbc:	11c01926 	beq	r2,r7,81c24 <__gesf2+0x94>
   81bc0:	01c03fc4 	movi	r7,255
   81bc4:	19c00f26 	beq	r3,r7,81c04 <__gesf2+0x74>
   81bc8:	1000061e 	bne	r2,zero,81be4 <__gesf2+0x54>
   81bcc:	400f003a 	cmpeq	r7,r8,zero
   81bd0:	1800071e 	bne	r3,zero,81bf0 <__gesf2+0x60>
   81bd4:	3000061e 	bne	r6,zero,81bf0 <__gesf2+0x60>
   81bd8:	0005883a 	mov	r2,zero
   81bdc:	40000e1e 	bne	r8,zero,81c18 <__gesf2+0x88>
   81be0:	f800283a 	ret
   81be4:	18000a1e 	bne	r3,zero,81c10 <__gesf2+0x80>
   81be8:	30000b26 	beq	r6,zero,81c18 <__gesf2+0x88>
   81bec:	000f883a 	mov	r7,zero
   81bf0:	29403fcc 	andi	r5,r5,255
   81bf4:	38000726 	beq	r7,zero,81c14 <__gesf2+0x84>
   81bf8:	28000826 	beq	r5,zero,81c1c <__gesf2+0x8c>
   81bfc:	00800044 	movi	r2,1
   81c00:	f800283a 	ret
   81c04:	303ff026 	beq	r6,zero,81bc8 <__alt_data_end+0xfff81bc8>
   81c08:	00bfff84 	movi	r2,-2
   81c0c:	f800283a 	ret
   81c10:	29403fcc 	andi	r5,r5,255
   81c14:	21400526 	beq	r4,r5,81c2c <__gesf2+0x9c>
   81c18:	203ff826 	beq	r4,zero,81bfc <__alt_data_end+0xfff81bfc>
   81c1c:	00bfffc4 	movi	r2,-1
   81c20:	f800283a 	ret
   81c24:	403fe626 	beq	r8,zero,81bc0 <__alt_data_end+0xfff81bc0>
   81c28:	003ff706 	br	81c08 <__alt_data_end+0xfff81c08>
   81c2c:	18bffa16 	blt	r3,r2,81c18 <__alt_data_end+0xfff81c18>
   81c30:	10c00216 	blt	r2,r3,81c3c <__gesf2+0xac>
   81c34:	323ff836 	bltu	r6,r8,81c18 <__alt_data_end+0xfff81c18>
   81c38:	4180022e 	bgeu	r8,r6,81c44 <__gesf2+0xb4>
   81c3c:	203fef1e 	bne	r4,zero,81bfc <__alt_data_end+0xfff81bfc>
   81c40:	003ff606 	br	81c1c <__alt_data_end+0xfff81c1c>
   81c44:	0005883a 	mov	r2,zero
   81c48:	f800283a 	ret

00081c4c <__lesf2>:
   81c4c:	2004d5fa 	srli	r2,r4,23
   81c50:	280cd5fa 	srli	r6,r5,23
   81c54:	00c02034 	movhi	r3,128
   81c58:	18ffffc4 	addi	r3,r3,-1
   81c5c:	10803fcc 	andi	r2,r2,255
   81c60:	01c03fc4 	movi	r7,255
   81c64:	1910703a 	and	r8,r3,r4
   81c68:	31803fcc 	andi	r6,r6,255
   81c6c:	1946703a 	and	r3,r3,r5
   81c70:	2008d7fa 	srli	r4,r4,31
   81c74:	280ad7fa 	srli	r5,r5,31
   81c78:	11c01b26 	beq	r2,r7,81ce8 <__lesf2+0x9c>
   81c7c:	01c03fc4 	movi	r7,255
   81c80:	31c01126 	beq	r6,r7,81cc8 <__lesf2+0x7c>
   81c84:	1000071e 	bne	r2,zero,81ca4 <__lesf2+0x58>
   81c88:	400f003a 	cmpeq	r7,r8,zero
   81c8c:	21003fcc 	andi	r4,r4,255
   81c90:	3000081e 	bne	r6,zero,81cb4 <__lesf2+0x68>
   81c94:	1800071e 	bne	r3,zero,81cb4 <__lesf2+0x68>
   81c98:	0005883a 	mov	r2,zero
   81c9c:	40000f1e 	bne	r8,zero,81cdc <__lesf2+0x90>
   81ca0:	f800283a 	ret
   81ca4:	21003fcc 	andi	r4,r4,255
   81ca8:	30000a1e 	bne	r6,zero,81cd4 <__lesf2+0x88>
   81cac:	18000b26 	beq	r3,zero,81cdc <__lesf2+0x90>
   81cb0:	000f883a 	mov	r7,zero
   81cb4:	29403fcc 	andi	r5,r5,255
   81cb8:	38000726 	beq	r7,zero,81cd8 <__lesf2+0x8c>
   81cbc:	28000826 	beq	r5,zero,81ce0 <__lesf2+0x94>
   81cc0:	00800044 	movi	r2,1
   81cc4:	f800283a 	ret
   81cc8:	183fee26 	beq	r3,zero,81c84 <__alt_data_end+0xfff81c84>
   81ccc:	00800084 	movi	r2,2
   81cd0:	f800283a 	ret
   81cd4:	29403fcc 	andi	r5,r5,255
   81cd8:	21400626 	beq	r4,r5,81cf4 <__lesf2+0xa8>
   81cdc:	203ff826 	beq	r4,zero,81cc0 <__alt_data_end+0xfff81cc0>
   81ce0:	00bfffc4 	movi	r2,-1
   81ce4:	f800283a 	ret
   81ce8:	403fe426 	beq	r8,zero,81c7c <__alt_data_end+0xfff81c7c>
   81cec:	00800084 	movi	r2,2
   81cf0:	f800283a 	ret
   81cf4:	30bff916 	blt	r6,r2,81cdc <__alt_data_end+0xfff81cdc>
   81cf8:	11800216 	blt	r2,r6,81d04 <__lesf2+0xb8>
   81cfc:	1a3ff736 	bltu	r3,r8,81cdc <__alt_data_end+0xfff81cdc>
   81d00:	40c0022e 	bgeu	r8,r3,81d0c <__lesf2+0xc0>
   81d04:	203fee1e 	bne	r4,zero,81cc0 <__alt_data_end+0xfff81cc0>
   81d08:	003ff506 	br	81ce0 <__alt_data_end+0xfff81ce0>
   81d0c:	0005883a 	mov	r2,zero
   81d10:	f800283a 	ret

00081d14 <__mulsf3>:
   81d14:	defff504 	addi	sp,sp,-44
   81d18:	dc000115 	stw	r16,4(sp)
   81d1c:	2020d5fa 	srli	r16,r4,23
   81d20:	dd400615 	stw	r21,24(sp)
   81d24:	202ad7fa 	srli	r21,r4,31
   81d28:	dc800315 	stw	r18,12(sp)
   81d2c:	04802034 	movhi	r18,128
   81d30:	df000915 	stw	fp,36(sp)
   81d34:	dd000515 	stw	r20,20(sp)
   81d38:	94bfffc4 	addi	r18,r18,-1
   81d3c:	dfc00a15 	stw	ra,40(sp)
   81d40:	ddc00815 	stw	r23,32(sp)
   81d44:	dd800715 	stw	r22,28(sp)
   81d48:	dcc00415 	stw	r19,16(sp)
   81d4c:	dc400215 	stw	r17,8(sp)
   81d50:	84003fcc 	andi	r16,r16,255
   81d54:	9124703a 	and	r18,r18,r4
   81d58:	a829883a 	mov	r20,r21
   81d5c:	af003fcc 	andi	fp,r21,255
   81d60:	80005426 	beq	r16,zero,81eb4 <__mulsf3+0x1a0>
   81d64:	00803fc4 	movi	r2,255
   81d68:	80802f26 	beq	r16,r2,81e28 <__mulsf3+0x114>
   81d6c:	91002034 	orhi	r4,r18,128
   81d70:	202490fa 	slli	r18,r4,3
   81d74:	843fe044 	addi	r16,r16,-127
   81d78:	0023883a 	mov	r17,zero
   81d7c:	002f883a 	mov	r23,zero
   81d80:	2804d5fa 	srli	r2,r5,23
   81d84:	282cd7fa 	srli	r22,r5,31
   81d88:	01002034 	movhi	r4,128
   81d8c:	213fffc4 	addi	r4,r4,-1
   81d90:	10803fcc 	andi	r2,r2,255
   81d94:	2166703a 	and	r19,r4,r5
   81d98:	b1803fcc 	andi	r6,r22,255
   81d9c:	10004c26 	beq	r2,zero,81ed0 <__mulsf3+0x1bc>
   81da0:	00c03fc4 	movi	r3,255
   81da4:	10c04726 	beq	r2,r3,81ec4 <__mulsf3+0x1b0>
   81da8:	99002034 	orhi	r4,r19,128
   81dac:	202690fa 	slli	r19,r4,3
   81db0:	10bfe044 	addi	r2,r2,-127
   81db4:	0007883a 	mov	r3,zero
   81db8:	80a1883a 	add	r16,r16,r2
   81dbc:	010003c4 	movi	r4,15
   81dc0:	1c44b03a 	or	r2,r3,r17
   81dc4:	b56af03a 	xor	r21,r22,r21
   81dc8:	81c00044 	addi	r7,r16,1
   81dcc:	20806b36 	bltu	r4,r2,81f7c <__mulsf3+0x268>
   81dd0:	100490ba 	slli	r2,r2,2
   81dd4:	01000234 	movhi	r4,8
   81dd8:	21077a04 	addi	r4,r4,7656
   81ddc:	1105883a 	add	r2,r2,r4
   81de0:	10800017 	ldw	r2,0(r2)
   81de4:	1000683a 	jmp	r2
   81de8:	00081f7c 	xorhi	zero,zero,8317
   81dec:	00081e3c 	xorhi	zero,zero,8312
   81df0:	00081e3c 	xorhi	zero,zero,8312
   81df4:	00081e38 	rdprs	zero,zero,8312
   81df8:	00081f60 	cmpeqi	zero,zero,8317
   81dfc:	00081f60 	cmpeqi	zero,zero,8317
   81e00:	00081f4c 	andi	zero,zero,8317
   81e04:	00081e38 	rdprs	zero,zero,8312
   81e08:	00081f60 	cmpeqi	zero,zero,8317
   81e0c:	00081f4c 	andi	zero,zero,8317
   81e10:	00081f60 	cmpeqi	zero,zero,8317
   81e14:	00081e38 	rdprs	zero,zero,8312
   81e18:	00081f6c 	andhi	zero,zero,8317
   81e1c:	00081f6c 	andhi	zero,zero,8317
   81e20:	00081f6c 	andhi	zero,zero,8317
   81e24:	00082048 	cmpgei	zero,zero,8321
   81e28:	90003b1e 	bne	r18,zero,81f18 <__mulsf3+0x204>
   81e2c:	04400204 	movi	r17,8
   81e30:	05c00084 	movi	r23,2
   81e34:	003fd206 	br	81d80 <__alt_data_end+0xfff81d80>
   81e38:	302b883a 	mov	r21,r6
   81e3c:	00800084 	movi	r2,2
   81e40:	18802626 	beq	r3,r2,81edc <__mulsf3+0x1c8>
   81e44:	008000c4 	movi	r2,3
   81e48:	1880ab26 	beq	r3,r2,820f8 <__mulsf3+0x3e4>
   81e4c:	00800044 	movi	r2,1
   81e50:	1880a21e 	bne	r3,r2,820dc <__mulsf3+0x3c8>
   81e54:	a829883a 	mov	r20,r21
   81e58:	0007883a 	mov	r3,zero
   81e5c:	0009883a 	mov	r4,zero
   81e60:	18803fcc 	andi	r2,r3,255
   81e64:	100695fa 	slli	r3,r2,23
   81e68:	a0803fcc 	andi	r2,r20,255
   81e6c:	100a97fa 	slli	r5,r2,31
   81e70:	00802034 	movhi	r2,128
   81e74:	10bfffc4 	addi	r2,r2,-1
   81e78:	2084703a 	and	r2,r4,r2
   81e7c:	10c4b03a 	or	r2,r2,r3
   81e80:	1144b03a 	or	r2,r2,r5
   81e84:	dfc00a17 	ldw	ra,40(sp)
   81e88:	df000917 	ldw	fp,36(sp)
   81e8c:	ddc00817 	ldw	r23,32(sp)
   81e90:	dd800717 	ldw	r22,28(sp)
   81e94:	dd400617 	ldw	r21,24(sp)
   81e98:	dd000517 	ldw	r20,20(sp)
   81e9c:	dcc00417 	ldw	r19,16(sp)
   81ea0:	dc800317 	ldw	r18,12(sp)
   81ea4:	dc400217 	ldw	r17,8(sp)
   81ea8:	dc000117 	ldw	r16,4(sp)
   81eac:	dec00b04 	addi	sp,sp,44
   81eb0:	f800283a 	ret
   81eb4:	90000d1e 	bne	r18,zero,81eec <__mulsf3+0x1d8>
   81eb8:	04400104 	movi	r17,4
   81ebc:	05c00044 	movi	r23,1
   81ec0:	003faf06 	br	81d80 <__alt_data_end+0xfff81d80>
   81ec4:	9806c03a 	cmpne	r3,r19,zero
   81ec8:	18c00084 	addi	r3,r3,2
   81ecc:	003fba06 	br	81db8 <__alt_data_end+0xfff81db8>
   81ed0:	9800141e 	bne	r19,zero,81f24 <__mulsf3+0x210>
   81ed4:	00c00044 	movi	r3,1
   81ed8:	003fb706 	br	81db8 <__alt_data_end+0xfff81db8>
   81edc:	a829883a 	mov	r20,r21
   81ee0:	00ffffc4 	movi	r3,-1
   81ee4:	0009883a 	mov	r4,zero
   81ee8:	003fdd06 	br	81e60 <__alt_data_end+0xfff81e60>
   81eec:	9009883a 	mov	r4,r18
   81ef0:	d9400015 	stw	r5,0(sp)
   81ef4:	0084db80 	call	84db8 <__clzsi2>
   81ef8:	10fffec4 	addi	r3,r2,-5
   81efc:	10801d84 	addi	r2,r2,118
   81f00:	90e4983a 	sll	r18,r18,r3
   81f04:	00a1c83a 	sub	r16,zero,r2
   81f08:	0023883a 	mov	r17,zero
   81f0c:	002f883a 	mov	r23,zero
   81f10:	d9400017 	ldw	r5,0(sp)
   81f14:	003f9a06 	br	81d80 <__alt_data_end+0xfff81d80>
   81f18:	04400304 	movi	r17,12
   81f1c:	05c000c4 	movi	r23,3
   81f20:	003f9706 	br	81d80 <__alt_data_end+0xfff81d80>
   81f24:	9809883a 	mov	r4,r19
   81f28:	d9800015 	stw	r6,0(sp)
   81f2c:	0084db80 	call	84db8 <__clzsi2>
   81f30:	10fffec4 	addi	r3,r2,-5
   81f34:	10801d84 	addi	r2,r2,118
   81f38:	98e6983a 	sll	r19,r19,r3
   81f3c:	0085c83a 	sub	r2,zero,r2
   81f40:	0007883a 	mov	r3,zero
   81f44:	d9800017 	ldw	r6,0(sp)
   81f48:	003f9b06 	br	81db8 <__alt_data_end+0xfff81db8>
   81f4c:	01002034 	movhi	r4,128
   81f50:	0029883a 	mov	r20,zero
   81f54:	213fffc4 	addi	r4,r4,-1
   81f58:	00ffffc4 	movi	r3,-1
   81f5c:	003fc006 	br	81e60 <__alt_data_end+0xfff81e60>
   81f60:	9027883a 	mov	r19,r18
   81f64:	b807883a 	mov	r3,r23
   81f68:	003fb406 	br	81e3c <__alt_data_end+0xfff81e3c>
   81f6c:	9027883a 	mov	r19,r18
   81f70:	e02b883a 	mov	r21,fp
   81f74:	b807883a 	mov	r3,r23
   81f78:	003fb006 	br	81e3c <__alt_data_end+0xfff81e3c>
   81f7c:	9004d43a 	srli	r2,r18,16
   81f80:	9810d43a 	srli	r8,r19,16
   81f84:	94bfffcc 	andi	r18,r18,65535
   81f88:	993fffcc 	andi	r4,r19,65535
   81f8c:	910d383a 	mul	r6,r18,r4
   81f90:	20a7383a 	mul	r19,r4,r2
   81f94:	9225383a 	mul	r18,r18,r8
   81f98:	3006d43a 	srli	r3,r6,16
   81f9c:	1211383a 	mul	r8,r2,r8
   81fa0:	94e5883a 	add	r18,r18,r19
   81fa4:	1c87883a 	add	r3,r3,r18
   81fa8:	1cc0022e 	bgeu	r3,r19,81fb4 <__mulsf3+0x2a0>
   81fac:	00800074 	movhi	r2,1
   81fb0:	4091883a 	add	r8,r8,r2
   81fb4:	1804943a 	slli	r2,r3,16
   81fb8:	31bfffcc 	andi	r6,r6,65535
   81fbc:	1806d43a 	srli	r3,r3,16
   81fc0:	1185883a 	add	r2,r2,r6
   81fc4:	102691ba 	slli	r19,r2,6
   81fc8:	1a07883a 	add	r3,r3,r8
   81fcc:	1004d6ba 	srli	r2,r2,26
   81fd0:	180891ba 	slli	r4,r3,6
   81fd4:	9826c03a 	cmpne	r19,r19,zero
   81fd8:	9884b03a 	or	r2,r19,r2
   81fdc:	1126b03a 	or	r19,r2,r4
   81fe0:	9882002c 	andhi	r2,r19,2048
   81fe4:	10000426 	beq	r2,zero,81ff8 <__mulsf3+0x2e4>
   81fe8:	9804d07a 	srli	r2,r19,1
   81fec:	9900004c 	andi	r4,r19,1
   81ff0:	3821883a 	mov	r16,r7
   81ff4:	1126b03a 	or	r19,r2,r4
   81ff8:	80c01fc4 	addi	r3,r16,127
   81ffc:	00c0210e 	bge	zero,r3,82084 <__mulsf3+0x370>
   82000:	988001cc 	andi	r2,r19,7
   82004:	10000426 	beq	r2,zero,82018 <__mulsf3+0x304>
   82008:	988003cc 	andi	r2,r19,15
   8200c:	01000104 	movi	r4,4
   82010:	11000126 	beq	r2,r4,82018 <__mulsf3+0x304>
   82014:	9927883a 	add	r19,r19,r4
   82018:	9882002c 	andhi	r2,r19,2048
   8201c:	10000426 	beq	r2,zero,82030 <__mulsf3+0x31c>
   82020:	00be0034 	movhi	r2,63488
   82024:	10bfffc4 	addi	r2,r2,-1
   82028:	80c02004 	addi	r3,r16,128
   8202c:	98a6703a 	and	r19,r19,r2
   82030:	00803f84 	movi	r2,254
   82034:	10ffa916 	blt	r2,r3,81edc <__alt_data_end+0xfff81edc>
   82038:	980891ba 	slli	r4,r19,6
   8203c:	a829883a 	mov	r20,r21
   82040:	2008d27a 	srli	r4,r4,9
   82044:	003f8606 	br	81e60 <__alt_data_end+0xfff81e60>
   82048:	9080102c 	andhi	r2,r18,64
   8204c:	10000826 	beq	r2,zero,82070 <__mulsf3+0x35c>
   82050:	9880102c 	andhi	r2,r19,64
   82054:	1000061e 	bne	r2,zero,82070 <__mulsf3+0x35c>
   82058:	00802034 	movhi	r2,128
   8205c:	99001034 	orhi	r4,r19,64
   82060:	10bfffc4 	addi	r2,r2,-1
   82064:	b029883a 	mov	r20,r22
   82068:	2088703a 	and	r4,r4,r2
   8206c:	003fba06 	br	81f58 <__alt_data_end+0xfff81f58>
   82070:	00802034 	movhi	r2,128
   82074:	91001034 	orhi	r4,r18,64
   82078:	10bfffc4 	addi	r2,r2,-1
   8207c:	2088703a 	and	r4,r4,r2
   82080:	003fb506 	br	81f58 <__alt_data_end+0xfff81f58>
   82084:	00800044 	movi	r2,1
   82088:	10c7c83a 	sub	r3,r2,r3
   8208c:	008006c4 	movi	r2,27
   82090:	10ff7016 	blt	r2,r3,81e54 <__alt_data_end+0xfff81e54>
   82094:	00800804 	movi	r2,32
   82098:	10c5c83a 	sub	r2,r2,r3
   8209c:	9884983a 	sll	r2,r19,r2
   820a0:	98c6d83a 	srl	r3,r19,r3
   820a4:	1004c03a 	cmpne	r2,r2,zero
   820a8:	1884b03a 	or	r2,r3,r2
   820ac:	10c001cc 	andi	r3,r2,7
   820b0:	18000426 	beq	r3,zero,820c4 <__mulsf3+0x3b0>
   820b4:	10c003cc 	andi	r3,r2,15
   820b8:	01000104 	movi	r4,4
   820bc:	19000126 	beq	r3,r4,820c4 <__mulsf3+0x3b0>
   820c0:	1105883a 	add	r2,r2,r4
   820c4:	10c1002c 	andhi	r3,r2,1024
   820c8:	18000626 	beq	r3,zero,820e4 <__mulsf3+0x3d0>
   820cc:	a829883a 	mov	r20,r21
   820d0:	00c00044 	movi	r3,1
   820d4:	0009883a 	mov	r4,zero
   820d8:	003f6106 	br	81e60 <__alt_data_end+0xfff81e60>
   820dc:	3821883a 	mov	r16,r7
   820e0:	003fc506 	br	81ff8 <__alt_data_end+0xfff81ff8>
   820e4:	100491ba 	slli	r2,r2,6
   820e8:	a829883a 	mov	r20,r21
   820ec:	0007883a 	mov	r3,zero
   820f0:	1008d27a 	srli	r4,r2,9
   820f4:	003f5a06 	br	81e60 <__alt_data_end+0xfff81e60>
   820f8:	00802034 	movhi	r2,128
   820fc:	99001034 	orhi	r4,r19,64
   82100:	10bfffc4 	addi	r2,r2,-1
   82104:	a829883a 	mov	r20,r21
   82108:	2088703a 	and	r4,r4,r2
   8210c:	003f9206 	br	81f58 <__alt_data_end+0xfff81f58>

00082110 <__subsf3>:
   82110:	defffc04 	addi	sp,sp,-16
   82114:	280cd5fa 	srli	r6,r5,23
   82118:	dc000015 	stw	r16,0(sp)
   8211c:	01c02034 	movhi	r7,128
   82120:	2020d5fa 	srli	r16,r4,23
   82124:	39ffffc4 	addi	r7,r7,-1
   82128:	3906703a 	and	r3,r7,r4
   8212c:	dc400115 	stw	r17,4(sp)
   82130:	394e703a 	and	r7,r7,r5
   82134:	2022d7fa 	srli	r17,r4,31
   82138:	dfc00315 	stw	ra,12(sp)
   8213c:	dc800215 	stw	r18,8(sp)
   82140:	31803fcc 	andi	r6,r6,255
   82144:	01003fc4 	movi	r4,255
   82148:	84003fcc 	andi	r16,r16,255
   8214c:	180690fa 	slli	r3,r3,3
   82150:	2804d7fa 	srli	r2,r5,31
   82154:	380e90fa 	slli	r7,r7,3
   82158:	31006d26 	beq	r6,r4,82310 <__subsf3+0x200>
   8215c:	1080005c 	xori	r2,r2,1
   82160:	8189c83a 	sub	r4,r16,r6
   82164:	14404f26 	beq	r2,r17,822a4 <__subsf3+0x194>
   82168:	0100770e 	bge	zero,r4,82348 <__subsf3+0x238>
   8216c:	30001e1e 	bne	r6,zero,821e8 <__subsf3+0xd8>
   82170:	38006a1e 	bne	r7,zero,8231c <__subsf3+0x20c>
   82174:	188001cc 	andi	r2,r3,7
   82178:	10000426 	beq	r2,zero,8218c <__subsf3+0x7c>
   8217c:	188003cc 	andi	r2,r3,15
   82180:	01000104 	movi	r4,4
   82184:	11000126 	beq	r2,r4,8218c <__subsf3+0x7c>
   82188:	1907883a 	add	r3,r3,r4
   8218c:	1881002c 	andhi	r2,r3,1024
   82190:	10003926 	beq	r2,zero,82278 <__subsf3+0x168>
   82194:	84000044 	addi	r16,r16,1
   82198:	00803fc4 	movi	r2,255
   8219c:	80807526 	beq	r16,r2,82374 <__subsf3+0x264>
   821a0:	180691ba 	slli	r3,r3,6
   821a4:	8880004c 	andi	r2,r17,1
   821a8:	180ad27a 	srli	r5,r3,9
   821ac:	84003fcc 	andi	r16,r16,255
   821b0:	800695fa 	slli	r3,r16,23
   821b4:	10803fcc 	andi	r2,r2,255
   821b8:	01002034 	movhi	r4,128
   821bc:	213fffc4 	addi	r4,r4,-1
   821c0:	100497fa 	slli	r2,r2,31
   821c4:	2920703a 	and	r16,r5,r4
   821c8:	80e0b03a 	or	r16,r16,r3
   821cc:	8084b03a 	or	r2,r16,r2
   821d0:	dfc00317 	ldw	ra,12(sp)
   821d4:	dc800217 	ldw	r18,8(sp)
   821d8:	dc400117 	ldw	r17,4(sp)
   821dc:	dc000017 	ldw	r16,0(sp)
   821e0:	dec00404 	addi	sp,sp,16
   821e4:	f800283a 	ret
   821e8:	00803fc4 	movi	r2,255
   821ec:	80bfe126 	beq	r16,r2,82174 <__alt_data_end+0xfff82174>
   821f0:	39c10034 	orhi	r7,r7,1024
   821f4:	008006c4 	movi	r2,27
   821f8:	11007416 	blt	r2,r4,823cc <__subsf3+0x2bc>
   821fc:	00800804 	movi	r2,32
   82200:	1105c83a 	sub	r2,r2,r4
   82204:	3884983a 	sll	r2,r7,r2
   82208:	390ed83a 	srl	r7,r7,r4
   8220c:	1008c03a 	cmpne	r4,r2,zero
   82210:	390eb03a 	or	r7,r7,r4
   82214:	19c7c83a 	sub	r3,r3,r7
   82218:	1881002c 	andhi	r2,r3,1024
   8221c:	10001426 	beq	r2,zero,82270 <__subsf3+0x160>
   82220:	04810034 	movhi	r18,1024
   82224:	94bfffc4 	addi	r18,r18,-1
   82228:	1ca4703a 	and	r18,r3,r18
   8222c:	9009883a 	mov	r4,r18
   82230:	0084db80 	call	84db8 <__clzsi2>
   82234:	10bffec4 	addi	r2,r2,-5
   82238:	90a4983a 	sll	r18,r18,r2
   8223c:	14005116 	blt	r2,r16,82384 <__subsf3+0x274>
   82240:	1405c83a 	sub	r2,r2,r16
   82244:	10c00044 	addi	r3,r2,1
   82248:	00800804 	movi	r2,32
   8224c:	10c5c83a 	sub	r2,r2,r3
   82250:	9084983a 	sll	r2,r18,r2
   82254:	90e4d83a 	srl	r18,r18,r3
   82258:	0021883a 	mov	r16,zero
   8225c:	1006c03a 	cmpne	r3,r2,zero
   82260:	90c6b03a 	or	r3,r18,r3
   82264:	003fc306 	br	82174 <__alt_data_end+0xfff82174>
   82268:	2000e026 	beq	r4,zero,825ec <__subsf3+0x4dc>
   8226c:	2007883a 	mov	r3,r4
   82270:	188001cc 	andi	r2,r3,7
   82274:	103fc11e 	bne	r2,zero,8217c <__alt_data_end+0xfff8217c>
   82278:	180ad0fa 	srli	r5,r3,3
   8227c:	00c03fc4 	movi	r3,255
   82280:	8880004c 	andi	r2,r17,1
   82284:	80c0031e 	bne	r16,r3,82294 <__subsf3+0x184>
   82288:	28006d26 	beq	r5,zero,82440 <__subsf3+0x330>
   8228c:	29401034 	orhi	r5,r5,64
   82290:	043fffc4 	movi	r16,-1
   82294:	00c02034 	movhi	r3,128
   82298:	18ffffc4 	addi	r3,r3,-1
   8229c:	28ca703a 	and	r5,r5,r3
   822a0:	003fc206 	br	821ac <__alt_data_end+0xfff821ac>
   822a4:	01003c0e 	bge	zero,r4,82398 <__subsf3+0x288>
   822a8:	30002126 	beq	r6,zero,82330 <__subsf3+0x220>
   822ac:	01403fc4 	movi	r5,255
   822b0:	817fb026 	beq	r16,r5,82174 <__alt_data_end+0xfff82174>
   822b4:	39c10034 	orhi	r7,r7,1024
   822b8:	014006c4 	movi	r5,27
   822bc:	29007416 	blt	r5,r4,82490 <__subsf3+0x380>
   822c0:	01400804 	movi	r5,32
   822c4:	290bc83a 	sub	r5,r5,r4
   822c8:	394a983a 	sll	r5,r7,r5
   822cc:	390ed83a 	srl	r7,r7,r4
   822d0:	2808c03a 	cmpne	r4,r5,zero
   822d4:	390eb03a 	or	r7,r7,r4
   822d8:	19c7883a 	add	r3,r3,r7
   822dc:	1901002c 	andhi	r4,r3,1024
   822e0:	20003826 	beq	r4,zero,823c4 <__subsf3+0x2b4>
   822e4:	84000044 	addi	r16,r16,1
   822e8:	01003fc4 	movi	r4,255
   822ec:	81005426 	beq	r16,r4,82440 <__subsf3+0x330>
   822f0:	1023883a 	mov	r17,r2
   822f4:	00bf0034 	movhi	r2,64512
   822f8:	10bfffc4 	addi	r2,r2,-1
   822fc:	1900004c 	andi	r4,r3,1
   82300:	1886703a 	and	r3,r3,r2
   82304:	1806d07a 	srli	r3,r3,1
   82308:	1906b03a 	or	r3,r3,r4
   8230c:	003f9906 	br	82174 <__alt_data_end+0xfff82174>
   82310:	383f9226 	beq	r7,zero,8215c <__alt_data_end+0xfff8215c>
   82314:	10803fcc 	andi	r2,r2,255
   82318:	003f9106 	br	82160 <__alt_data_end+0xfff82160>
   8231c:	213fffc4 	addi	r4,r4,-1
   82320:	203fbc26 	beq	r4,zero,82214 <__alt_data_end+0xfff82214>
   82324:	00803fc4 	movi	r2,255
   82328:	80bfb21e 	bne	r16,r2,821f4 <__alt_data_end+0xfff821f4>
   8232c:	003f9106 	br	82174 <__alt_data_end+0xfff82174>
   82330:	383f9026 	beq	r7,zero,82174 <__alt_data_end+0xfff82174>
   82334:	213fffc4 	addi	r4,r4,-1
   82338:	203fe726 	beq	r4,zero,822d8 <__alt_data_end+0xfff822d8>
   8233c:	01403fc4 	movi	r5,255
   82340:	817fdd1e 	bne	r16,r5,822b8 <__alt_data_end+0xfff822b8>
   82344:	003f8b06 	br	82174 <__alt_data_end+0xfff82174>
   82348:	2000221e 	bne	r4,zero,823d4 <__subsf3+0x2c4>
   8234c:	81000044 	addi	r4,r16,1
   82350:	21003fcc 	andi	r4,r4,255
   82354:	01400044 	movi	r5,1
   82358:	2900470e 	bge	r5,r4,82478 <__subsf3+0x368>
   8235c:	19e5c83a 	sub	r18,r3,r7
   82360:	9141002c 	andhi	r5,r18,1024
   82364:	28002d26 	beq	r5,zero,8241c <__subsf3+0x30c>
   82368:	38e5c83a 	sub	r18,r7,r3
   8236c:	1023883a 	mov	r17,r2
   82370:	003fae06 	br	8222c <__alt_data_end+0xfff8222c>
   82374:	8880004c 	andi	r2,r17,1
   82378:	043fffc4 	movi	r16,-1
   8237c:	000b883a 	mov	r5,zero
   82380:	003f8a06 	br	821ac <__alt_data_end+0xfff821ac>
   82384:	00ff0034 	movhi	r3,64512
   82388:	18ffffc4 	addi	r3,r3,-1
   8238c:	80a1c83a 	sub	r16,r16,r2
   82390:	90c6703a 	and	r3,r18,r3
   82394:	003f7706 	br	82174 <__alt_data_end+0xfff82174>
   82398:	2000431e 	bne	r4,zero,824a8 <__subsf3+0x398>
   8239c:	81000044 	addi	r4,r16,1
   823a0:	21803fcc 	andi	r6,r4,255
   823a4:	01400044 	movi	r5,1
   823a8:	2980280e 	bge	r5,r6,8244c <__subsf3+0x33c>
   823ac:	01403fc4 	movi	r5,255
   823b0:	21402326 	beq	r4,r5,82440 <__subsf3+0x330>
   823b4:	19c7883a 	add	r3,r3,r7
   823b8:	1806d07a 	srli	r3,r3,1
   823bc:	2021883a 	mov	r16,r4
   823c0:	003f6c06 	br	82174 <__alt_data_end+0xfff82174>
   823c4:	1023883a 	mov	r17,r2
   823c8:	003fa906 	br	82270 <__alt_data_end+0xfff82270>
   823cc:	01c00044 	movi	r7,1
   823d0:	003f9006 	br	82214 <__alt_data_end+0xfff82214>
   823d4:	8000151e 	bne	r16,zero,8242c <__subsf3+0x31c>
   823d8:	18002f26 	beq	r3,zero,82498 <__subsf3+0x388>
   823dc:	0108303a 	nor	r4,zero,r4
   823e0:	20000a26 	beq	r4,zero,8240c <__subsf3+0x2fc>
   823e4:	01403fc4 	movi	r5,255
   823e8:	31402b26 	beq	r6,r5,82498 <__subsf3+0x388>
   823ec:	014006c4 	movi	r5,27
   823f0:	29006e16 	blt	r5,r4,825ac <__subsf3+0x49c>
   823f4:	01400804 	movi	r5,32
   823f8:	290bc83a 	sub	r5,r5,r4
   823fc:	194a983a 	sll	r5,r3,r5
   82400:	1908d83a 	srl	r4,r3,r4
   82404:	2806c03a 	cmpne	r3,r5,zero
   82408:	20c6b03a 	or	r3,r4,r3
   8240c:	38c7c83a 	sub	r3,r7,r3
   82410:	3021883a 	mov	r16,r6
   82414:	1023883a 	mov	r17,r2
   82418:	003f7f06 	br	82218 <__alt_data_end+0xfff82218>
   8241c:	903f831e 	bne	r18,zero,8222c <__alt_data_end+0xfff8222c>
   82420:	0005883a 	mov	r2,zero
   82424:	0021883a 	mov	r16,zero
   82428:	003f9a06 	br	82294 <__alt_data_end+0xfff82294>
   8242c:	01403fc4 	movi	r5,255
   82430:	31401926 	beq	r6,r5,82498 <__subsf3+0x388>
   82434:	0109c83a 	sub	r4,zero,r4
   82438:	18c10034 	orhi	r3,r3,1024
   8243c:	003feb06 	br	823ec <__alt_data_end+0xfff823ec>
   82440:	043fffc4 	movi	r16,-1
   82444:	000b883a 	mov	r5,zero
   82448:	003f5806 	br	821ac <__alt_data_end+0xfff821ac>
   8244c:	8000481e 	bne	r16,zero,82570 <__subsf3+0x460>
   82450:	18006226 	beq	r3,zero,825dc <__subsf3+0x4cc>
   82454:	383f4726 	beq	r7,zero,82174 <__alt_data_end+0xfff82174>
   82458:	19c7883a 	add	r3,r3,r7
   8245c:	1881002c 	andhi	r2,r3,1024
   82460:	103f8326 	beq	r2,zero,82270 <__alt_data_end+0xfff82270>
   82464:	00bf0034 	movhi	r2,64512
   82468:	10bfffc4 	addi	r2,r2,-1
   8246c:	2821883a 	mov	r16,r5
   82470:	1886703a 	and	r3,r3,r2
   82474:	003f3f06 	br	82174 <__alt_data_end+0xfff82174>
   82478:	80001c1e 	bne	r16,zero,824ec <__subsf3+0x3dc>
   8247c:	1800261e 	bne	r3,zero,82518 <__subsf3+0x408>
   82480:	38004c26 	beq	r7,zero,825b4 <__subsf3+0x4a4>
   82484:	3807883a 	mov	r3,r7
   82488:	1023883a 	mov	r17,r2
   8248c:	003f3906 	br	82174 <__alt_data_end+0xfff82174>
   82490:	01c00044 	movi	r7,1
   82494:	003f9006 	br	822d8 <__alt_data_end+0xfff822d8>
   82498:	3807883a 	mov	r3,r7
   8249c:	3021883a 	mov	r16,r6
   824a0:	1023883a 	mov	r17,r2
   824a4:	003f3306 	br	82174 <__alt_data_end+0xfff82174>
   824a8:	8000161e 	bne	r16,zero,82504 <__subsf3+0x3f4>
   824ac:	18002d26 	beq	r3,zero,82564 <__subsf3+0x454>
   824b0:	0108303a 	nor	r4,zero,r4
   824b4:	20000a26 	beq	r4,zero,824e0 <__subsf3+0x3d0>
   824b8:	01403fc4 	movi	r5,255
   824bc:	31402926 	beq	r6,r5,82564 <__subsf3+0x454>
   824c0:	014006c4 	movi	r5,27
   824c4:	29004716 	blt	r5,r4,825e4 <__subsf3+0x4d4>
   824c8:	01400804 	movi	r5,32
   824cc:	290bc83a 	sub	r5,r5,r4
   824d0:	194a983a 	sll	r5,r3,r5
   824d4:	1908d83a 	srl	r4,r3,r4
   824d8:	2806c03a 	cmpne	r3,r5,zero
   824dc:	20c6b03a 	or	r3,r4,r3
   824e0:	19c7883a 	add	r3,r3,r7
   824e4:	3021883a 	mov	r16,r6
   824e8:	003f7c06 	br	822dc <__alt_data_end+0xfff822dc>
   824ec:	1800111e 	bne	r3,zero,82534 <__subsf3+0x424>
   824f0:	38003326 	beq	r7,zero,825c0 <__subsf3+0x4b0>
   824f4:	3807883a 	mov	r3,r7
   824f8:	1023883a 	mov	r17,r2
   824fc:	04003fc4 	movi	r16,255
   82500:	003f1c06 	br	82174 <__alt_data_end+0xfff82174>
   82504:	01403fc4 	movi	r5,255
   82508:	31401626 	beq	r6,r5,82564 <__subsf3+0x454>
   8250c:	0109c83a 	sub	r4,zero,r4
   82510:	18c10034 	orhi	r3,r3,1024
   82514:	003fea06 	br	824c0 <__alt_data_end+0xfff824c0>
   82518:	383f1626 	beq	r7,zero,82174 <__alt_data_end+0xfff82174>
   8251c:	19c9c83a 	sub	r4,r3,r7
   82520:	2141002c 	andhi	r5,r4,1024
   82524:	283f5026 	beq	r5,zero,82268 <__alt_data_end+0xfff82268>
   82528:	38c7c83a 	sub	r3,r7,r3
   8252c:	1023883a 	mov	r17,r2
   82530:	003f1006 	br	82174 <__alt_data_end+0xfff82174>
   82534:	38001b26 	beq	r7,zero,825a4 <__subsf3+0x494>
   82538:	1806d0fa 	srli	r3,r3,3
   8253c:	1900102c 	andhi	r4,r3,64
   82540:	20000526 	beq	r4,zero,82558 <__subsf3+0x448>
   82544:	380ed0fa 	srli	r7,r7,3
   82548:	3900102c 	andhi	r4,r7,64
   8254c:	2000021e 	bne	r4,zero,82558 <__subsf3+0x448>
   82550:	3807883a 	mov	r3,r7
   82554:	1023883a 	mov	r17,r2
   82558:	180690fa 	slli	r3,r3,3
   8255c:	04003fc4 	movi	r16,255
   82560:	003f0406 	br	82174 <__alt_data_end+0xfff82174>
   82564:	3807883a 	mov	r3,r7
   82568:	3021883a 	mov	r16,r6
   8256c:	003f0106 	br	82174 <__alt_data_end+0xfff82174>
   82570:	18001726 	beq	r3,zero,825d0 <__subsf3+0x4c0>
   82574:	38000b26 	beq	r7,zero,825a4 <__subsf3+0x494>
   82578:	1806d0fa 	srli	r3,r3,3
   8257c:	1900102c 	andhi	r4,r3,64
   82580:	20000426 	beq	r4,zero,82594 <__subsf3+0x484>
   82584:	380ed0fa 	srli	r7,r7,3
   82588:	3900102c 	andhi	r4,r7,64
   8258c:	2000011e 	bne	r4,zero,82594 <__subsf3+0x484>
   82590:	3807883a 	mov	r3,r7
   82594:	180690fa 	slli	r3,r3,3
   82598:	1023883a 	mov	r17,r2
   8259c:	04003fc4 	movi	r16,255
   825a0:	003ef406 	br	82174 <__alt_data_end+0xfff82174>
   825a4:	04003fc4 	movi	r16,255
   825a8:	003ef206 	br	82174 <__alt_data_end+0xfff82174>
   825ac:	00c00044 	movi	r3,1
   825b0:	003f9606 	br	8240c <__alt_data_end+0xfff8240c>
   825b4:	000b883a 	mov	r5,zero
   825b8:	0005883a 	mov	r2,zero
   825bc:	003f3506 	br	82294 <__alt_data_end+0xfff82294>
   825c0:	01402034 	movhi	r5,128
   825c4:	297fffc4 	addi	r5,r5,-1
   825c8:	0005883a 	mov	r2,zero
   825cc:	003f2f06 	br	8228c <__alt_data_end+0xfff8228c>
   825d0:	3807883a 	mov	r3,r7
   825d4:	04003fc4 	movi	r16,255
   825d8:	003ee606 	br	82174 <__alt_data_end+0xfff82174>
   825dc:	3807883a 	mov	r3,r7
   825e0:	003ee406 	br	82174 <__alt_data_end+0xfff82174>
   825e4:	00c00044 	movi	r3,1
   825e8:	003fbd06 	br	824e0 <__alt_data_end+0xfff824e0>
   825ec:	0005883a 	mov	r2,zero
   825f0:	003f2806 	br	82294 <__alt_data_end+0xfff82294>

000825f4 <__fixsfsi>:
   825f4:	200ad5fa 	srli	r5,r4,23
   825f8:	00c02034 	movhi	r3,128
   825fc:	18ffffc4 	addi	r3,r3,-1
   82600:	29403fcc 	andi	r5,r5,255
   82604:	00801f84 	movi	r2,126
   82608:	1906703a 	and	r3,r3,r4
   8260c:	2008d7fa 	srli	r4,r4,31
   82610:	11400e0e 	bge	r2,r5,8264c <__fixsfsi+0x58>
   82614:	00802744 	movi	r2,157
   82618:	11400816 	blt	r2,r5,8263c <__fixsfsi+0x48>
   8261c:	00802544 	movi	r2,149
   82620:	18c02034 	orhi	r3,r3,128
   82624:	11400b0e 	bge	r2,r5,82654 <__fixsfsi+0x60>
   82628:	28bfda84 	addi	r2,r5,-150
   8262c:	1884983a 	sll	r2,r3,r2
   82630:	20000726 	beq	r4,zero,82650 <__fixsfsi+0x5c>
   82634:	0085c83a 	sub	r2,zero,r2
   82638:	f800283a 	ret
   8263c:	00a00034 	movhi	r2,32768
   82640:	10bfffc4 	addi	r2,r2,-1
   82644:	2085883a 	add	r2,r4,r2
   82648:	f800283a 	ret
   8264c:	0005883a 	mov	r2,zero
   82650:	f800283a 	ret
   82654:	00802584 	movi	r2,150
   82658:	1145c83a 	sub	r2,r2,r5
   8265c:	1884d83a 	srl	r2,r3,r2
   82660:	003ff306 	br	82630 <__alt_data_end+0xfff82630>

00082664 <__floatsisf>:
   82664:	defffd04 	addi	sp,sp,-12
   82668:	dfc00215 	stw	ra,8(sp)
   8266c:	dc400115 	stw	r17,4(sp)
   82670:	dc000015 	stw	r16,0(sp)
   82674:	20003526 	beq	r4,zero,8274c <__floatsisf+0xe8>
   82678:	2021883a 	mov	r16,r4
   8267c:	2022d7fa 	srli	r17,r4,31
   82680:	20003616 	blt	r4,zero,8275c <__floatsisf+0xf8>
   82684:	8009883a 	mov	r4,r16
   82688:	0084db80 	call	84db8 <__clzsi2>
   8268c:	00c02784 	movi	r3,158
   82690:	1887c83a 	sub	r3,r3,r2
   82694:	01002584 	movi	r4,150
   82698:	20c01416 	blt	r4,r3,826ec <__floatsisf+0x88>
   8269c:	20c9c83a 	sub	r4,r4,r3
   826a0:	8120983a 	sll	r16,r16,r4
   826a4:	00802034 	movhi	r2,128
   826a8:	10bfffc4 	addi	r2,r2,-1
   826ac:	8809883a 	mov	r4,r17
   826b0:	80a0703a 	and	r16,r16,r2
   826b4:	18803fcc 	andi	r2,r3,255
   826b8:	100695fa 	slli	r3,r2,23
   826bc:	20803fcc 	andi	r2,r4,255
   826c0:	100897fa 	slli	r4,r2,31
   826c4:	00802034 	movhi	r2,128
   826c8:	10bfffc4 	addi	r2,r2,-1
   826cc:	8084703a 	and	r2,r16,r2
   826d0:	10c4b03a 	or	r2,r2,r3
   826d4:	1104b03a 	or	r2,r2,r4
   826d8:	dfc00217 	ldw	ra,8(sp)
   826dc:	dc400117 	ldw	r17,4(sp)
   826e0:	dc000017 	ldw	r16,0(sp)
   826e4:	dec00304 	addi	sp,sp,12
   826e8:	f800283a 	ret
   826ec:	01002644 	movi	r4,153
   826f0:	20c01c16 	blt	r4,r3,82764 <__floatsisf+0x100>
   826f4:	20c9c83a 	sub	r4,r4,r3
   826f8:	8120983a 	sll	r16,r16,r4
   826fc:	013f0034 	movhi	r4,64512
   82700:	213fffc4 	addi	r4,r4,-1
   82704:	814001cc 	andi	r5,r16,7
   82708:	8108703a 	and	r4,r16,r4
   8270c:	28000426 	beq	r5,zero,82720 <__floatsisf+0xbc>
   82710:	840003cc 	andi	r16,r16,15
   82714:	01400104 	movi	r5,4
   82718:	81400126 	beq	r16,r5,82720 <__floatsisf+0xbc>
   8271c:	2149883a 	add	r4,r4,r5
   82720:	2141002c 	andhi	r5,r4,1024
   82724:	28000526 	beq	r5,zero,8273c <__floatsisf+0xd8>
   82728:	00c027c4 	movi	r3,159
   8272c:	1887c83a 	sub	r3,r3,r2
   82730:	00bf0034 	movhi	r2,64512
   82734:	10bfffc4 	addi	r2,r2,-1
   82738:	2088703a 	and	r4,r4,r2
   8273c:	202091ba 	slli	r16,r4,6
   82740:	8809883a 	mov	r4,r17
   82744:	8020d27a 	srli	r16,r16,9
   82748:	003fda06 	br	826b4 <__alt_data_end+0xfff826b4>
   8274c:	0009883a 	mov	r4,zero
   82750:	0007883a 	mov	r3,zero
   82754:	0021883a 	mov	r16,zero
   82758:	003fd606 	br	826b4 <__alt_data_end+0xfff826b4>
   8275c:	0121c83a 	sub	r16,zero,r4
   82760:	003fc806 	br	82684 <__alt_data_end+0xfff82684>
   82764:	01002e44 	movi	r4,185
   82768:	20c9c83a 	sub	r4,r4,r3
   8276c:	01400144 	movi	r5,5
   82770:	8108983a 	sll	r4,r16,r4
   82774:	288bc83a 	sub	r5,r5,r2
   82778:	8160d83a 	srl	r16,r16,r5
   8277c:	2008c03a 	cmpne	r4,r4,zero
   82780:	8120b03a 	or	r16,r16,r4
   82784:	003fdd06 	br	826fc <__alt_data_end+0xfff826fc>

00082788 <__adddf3>:
   82788:	02c00434 	movhi	r11,16
   8278c:	5affffc4 	addi	r11,r11,-1
   82790:	2806d7fa 	srli	r3,r5,31
   82794:	2ad4703a 	and	r10,r5,r11
   82798:	3ad2703a 	and	r9,r7,r11
   8279c:	3804d53a 	srli	r2,r7,20
   827a0:	3018d77a 	srli	r12,r6,29
   827a4:	280ad53a 	srli	r5,r5,20
   827a8:	501490fa 	slli	r10,r10,3
   827ac:	2010d77a 	srli	r8,r4,29
   827b0:	481290fa 	slli	r9,r9,3
   827b4:	380ed7fa 	srli	r7,r7,31
   827b8:	defffb04 	addi	sp,sp,-20
   827bc:	dc800215 	stw	r18,8(sp)
   827c0:	dc400115 	stw	r17,4(sp)
   827c4:	dc000015 	stw	r16,0(sp)
   827c8:	dfc00415 	stw	ra,16(sp)
   827cc:	dcc00315 	stw	r19,12(sp)
   827d0:	1c803fcc 	andi	r18,r3,255
   827d4:	2c01ffcc 	andi	r16,r5,2047
   827d8:	5210b03a 	or	r8,r10,r8
   827dc:	202290fa 	slli	r17,r4,3
   827e0:	1081ffcc 	andi	r2,r2,2047
   827e4:	4b12b03a 	or	r9,r9,r12
   827e8:	300c90fa 	slli	r6,r6,3
   827ec:	91c07526 	beq	r18,r7,829c4 <__adddf3+0x23c>
   827f0:	8087c83a 	sub	r3,r16,r2
   827f4:	00c0ab0e 	bge	zero,r3,82aa4 <__adddf3+0x31c>
   827f8:	10002a1e 	bne	r2,zero,828a4 <__adddf3+0x11c>
   827fc:	4984b03a 	or	r2,r9,r6
   82800:	1000961e 	bne	r2,zero,82a5c <__adddf3+0x2d4>
   82804:	888001cc 	andi	r2,r17,7
   82808:	10000726 	beq	r2,zero,82828 <__adddf3+0xa0>
   8280c:	888003cc 	andi	r2,r17,15
   82810:	00c00104 	movi	r3,4
   82814:	10c00426 	beq	r2,r3,82828 <__adddf3+0xa0>
   82818:	88c7883a 	add	r3,r17,r3
   8281c:	1c63803a 	cmpltu	r17,r3,r17
   82820:	4451883a 	add	r8,r8,r17
   82824:	1823883a 	mov	r17,r3
   82828:	4080202c 	andhi	r2,r8,128
   8282c:	10005926 	beq	r2,zero,82994 <__adddf3+0x20c>
   82830:	84000044 	addi	r16,r16,1
   82834:	0081ffc4 	movi	r2,2047
   82838:	8080ba26 	beq	r16,r2,82b24 <__adddf3+0x39c>
   8283c:	00bfe034 	movhi	r2,65408
   82840:	10bfffc4 	addi	r2,r2,-1
   82844:	4090703a 	and	r8,r8,r2
   82848:	4004977a 	slli	r2,r8,29
   8284c:	4010927a 	slli	r8,r8,9
   82850:	8822d0fa 	srli	r17,r17,3
   82854:	8401ffcc 	andi	r16,r16,2047
   82858:	4010d33a 	srli	r8,r8,12
   8285c:	9007883a 	mov	r3,r18
   82860:	1444b03a 	or	r2,r2,r17
   82864:	8401ffcc 	andi	r16,r16,2047
   82868:	8020953a 	slli	r16,r16,20
   8286c:	18c03fcc 	andi	r3,r3,255
   82870:	01000434 	movhi	r4,16
   82874:	213fffc4 	addi	r4,r4,-1
   82878:	180697fa 	slli	r3,r3,31
   8287c:	4110703a 	and	r8,r8,r4
   82880:	4410b03a 	or	r8,r8,r16
   82884:	40c6b03a 	or	r3,r8,r3
   82888:	dfc00417 	ldw	ra,16(sp)
   8288c:	dcc00317 	ldw	r19,12(sp)
   82890:	dc800217 	ldw	r18,8(sp)
   82894:	dc400117 	ldw	r17,4(sp)
   82898:	dc000017 	ldw	r16,0(sp)
   8289c:	dec00504 	addi	sp,sp,20
   828a0:	f800283a 	ret
   828a4:	0081ffc4 	movi	r2,2047
   828a8:	80bfd626 	beq	r16,r2,82804 <__alt_data_end+0xfff82804>
   828ac:	4a402034 	orhi	r9,r9,128
   828b0:	00800e04 	movi	r2,56
   828b4:	10c09f16 	blt	r2,r3,82b34 <__adddf3+0x3ac>
   828b8:	008007c4 	movi	r2,31
   828bc:	10c0c216 	blt	r2,r3,82bc8 <__adddf3+0x440>
   828c0:	00800804 	movi	r2,32
   828c4:	10c5c83a 	sub	r2,r2,r3
   828c8:	488a983a 	sll	r5,r9,r2
   828cc:	30c8d83a 	srl	r4,r6,r3
   828d0:	3084983a 	sll	r2,r6,r2
   828d4:	48c6d83a 	srl	r3,r9,r3
   828d8:	290cb03a 	or	r6,r5,r4
   828dc:	1004c03a 	cmpne	r2,r2,zero
   828e0:	308cb03a 	or	r6,r6,r2
   828e4:	898dc83a 	sub	r6,r17,r6
   828e8:	89a3803a 	cmpltu	r17,r17,r6
   828ec:	40d1c83a 	sub	r8,r8,r3
   828f0:	4451c83a 	sub	r8,r8,r17
   828f4:	3023883a 	mov	r17,r6
   828f8:	4080202c 	andhi	r2,r8,128
   828fc:	10002326 	beq	r2,zero,8298c <__adddf3+0x204>
   82900:	04c02034 	movhi	r19,128
   82904:	9cffffc4 	addi	r19,r19,-1
   82908:	44e6703a 	and	r19,r8,r19
   8290c:	98007626 	beq	r19,zero,82ae8 <__adddf3+0x360>
   82910:	9809883a 	mov	r4,r19
   82914:	0084db80 	call	84db8 <__clzsi2>
   82918:	10fffe04 	addi	r3,r2,-8
   8291c:	010007c4 	movi	r4,31
   82920:	20c07716 	blt	r4,r3,82b00 <__adddf3+0x378>
   82924:	00800804 	movi	r2,32
   82928:	10c5c83a 	sub	r2,r2,r3
   8292c:	8884d83a 	srl	r2,r17,r2
   82930:	98d0983a 	sll	r8,r19,r3
   82934:	88e2983a 	sll	r17,r17,r3
   82938:	1204b03a 	or	r2,r2,r8
   8293c:	1c007416 	blt	r3,r16,82b10 <__adddf3+0x388>
   82940:	1c21c83a 	sub	r16,r3,r16
   82944:	82000044 	addi	r8,r16,1
   82948:	00c007c4 	movi	r3,31
   8294c:	1a009116 	blt	r3,r8,82b94 <__adddf3+0x40c>
   82950:	00c00804 	movi	r3,32
   82954:	1a07c83a 	sub	r3,r3,r8
   82958:	8a08d83a 	srl	r4,r17,r8
   8295c:	88e2983a 	sll	r17,r17,r3
   82960:	10c6983a 	sll	r3,r2,r3
   82964:	1210d83a 	srl	r8,r2,r8
   82968:	8804c03a 	cmpne	r2,r17,zero
   8296c:	1906b03a 	or	r3,r3,r4
   82970:	18a2b03a 	or	r17,r3,r2
   82974:	0021883a 	mov	r16,zero
   82978:	003fa206 	br	82804 <__alt_data_end+0xfff82804>
   8297c:	1890b03a 	or	r8,r3,r2
   82980:	40017d26 	beq	r8,zero,82f78 <__adddf3+0x7f0>
   82984:	1011883a 	mov	r8,r2
   82988:	1823883a 	mov	r17,r3
   8298c:	888001cc 	andi	r2,r17,7
   82990:	103f9e1e 	bne	r2,zero,8280c <__alt_data_end+0xfff8280c>
   82994:	4004977a 	slli	r2,r8,29
   82998:	8822d0fa 	srli	r17,r17,3
   8299c:	4010d0fa 	srli	r8,r8,3
   829a0:	9007883a 	mov	r3,r18
   829a4:	1444b03a 	or	r2,r2,r17
   829a8:	0101ffc4 	movi	r4,2047
   829ac:	81002426 	beq	r16,r4,82a40 <__adddf3+0x2b8>
   829b0:	8120703a 	and	r16,r16,r4
   829b4:	01000434 	movhi	r4,16
   829b8:	213fffc4 	addi	r4,r4,-1
   829bc:	4110703a 	and	r8,r8,r4
   829c0:	003fa806 	br	82864 <__alt_data_end+0xfff82864>
   829c4:	8089c83a 	sub	r4,r16,r2
   829c8:	01005e0e 	bge	zero,r4,82b44 <__adddf3+0x3bc>
   829cc:	10002b26 	beq	r2,zero,82a7c <__adddf3+0x2f4>
   829d0:	0081ffc4 	movi	r2,2047
   829d4:	80bf8b26 	beq	r16,r2,82804 <__alt_data_end+0xfff82804>
   829d8:	4a402034 	orhi	r9,r9,128
   829dc:	00800e04 	movi	r2,56
   829e0:	1100a40e 	bge	r2,r4,82c74 <__adddf3+0x4ec>
   829e4:	498cb03a 	or	r6,r9,r6
   829e8:	300ac03a 	cmpne	r5,r6,zero
   829ec:	0013883a 	mov	r9,zero
   829f0:	2c4b883a 	add	r5,r5,r17
   829f4:	2c63803a 	cmpltu	r17,r5,r17
   829f8:	4a11883a 	add	r8,r9,r8
   829fc:	8a11883a 	add	r8,r17,r8
   82a00:	2823883a 	mov	r17,r5
   82a04:	4080202c 	andhi	r2,r8,128
   82a08:	103fe026 	beq	r2,zero,8298c <__alt_data_end+0xfff8298c>
   82a0c:	84000044 	addi	r16,r16,1
   82a10:	0081ffc4 	movi	r2,2047
   82a14:	8080d226 	beq	r16,r2,82d60 <__adddf3+0x5d8>
   82a18:	00bfe034 	movhi	r2,65408
   82a1c:	10bfffc4 	addi	r2,r2,-1
   82a20:	4090703a 	and	r8,r8,r2
   82a24:	880ad07a 	srli	r5,r17,1
   82a28:	400897fa 	slli	r4,r8,31
   82a2c:	88c0004c 	andi	r3,r17,1
   82a30:	28e2b03a 	or	r17,r5,r3
   82a34:	4010d07a 	srli	r8,r8,1
   82a38:	2462b03a 	or	r17,r4,r17
   82a3c:	003f7106 	br	82804 <__alt_data_end+0xfff82804>
   82a40:	4088b03a 	or	r4,r8,r2
   82a44:	20014526 	beq	r4,zero,82f5c <__adddf3+0x7d4>
   82a48:	01000434 	movhi	r4,16
   82a4c:	42000234 	orhi	r8,r8,8
   82a50:	213fffc4 	addi	r4,r4,-1
   82a54:	4110703a 	and	r8,r8,r4
   82a58:	003f8206 	br	82864 <__alt_data_end+0xfff82864>
   82a5c:	18ffffc4 	addi	r3,r3,-1
   82a60:	1800491e 	bne	r3,zero,82b88 <__adddf3+0x400>
   82a64:	898bc83a 	sub	r5,r17,r6
   82a68:	8963803a 	cmpltu	r17,r17,r5
   82a6c:	4251c83a 	sub	r8,r8,r9
   82a70:	4451c83a 	sub	r8,r8,r17
   82a74:	2823883a 	mov	r17,r5
   82a78:	003f9f06 	br	828f8 <__alt_data_end+0xfff828f8>
   82a7c:	4984b03a 	or	r2,r9,r6
   82a80:	103f6026 	beq	r2,zero,82804 <__alt_data_end+0xfff82804>
   82a84:	213fffc4 	addi	r4,r4,-1
   82a88:	2000931e 	bne	r4,zero,82cd8 <__adddf3+0x550>
   82a8c:	898d883a 	add	r6,r17,r6
   82a90:	3463803a 	cmpltu	r17,r6,r17
   82a94:	4251883a 	add	r8,r8,r9
   82a98:	8a11883a 	add	r8,r17,r8
   82a9c:	3023883a 	mov	r17,r6
   82aa0:	003fd806 	br	82a04 <__alt_data_end+0xfff82a04>
   82aa4:	1800541e 	bne	r3,zero,82bf8 <__adddf3+0x470>
   82aa8:	80800044 	addi	r2,r16,1
   82aac:	1081ffcc 	andi	r2,r2,2047
   82ab0:	00c00044 	movi	r3,1
   82ab4:	1880a00e 	bge	r3,r2,82d38 <__adddf3+0x5b0>
   82ab8:	8989c83a 	sub	r4,r17,r6
   82abc:	8905803a 	cmpltu	r2,r17,r4
   82ac0:	4267c83a 	sub	r19,r8,r9
   82ac4:	98a7c83a 	sub	r19,r19,r2
   82ac8:	9880202c 	andhi	r2,r19,128
   82acc:	10006326 	beq	r2,zero,82c5c <__adddf3+0x4d4>
   82ad0:	3463c83a 	sub	r17,r6,r17
   82ad4:	4a07c83a 	sub	r3,r9,r8
   82ad8:	344d803a 	cmpltu	r6,r6,r17
   82adc:	19a7c83a 	sub	r19,r3,r6
   82ae0:	3825883a 	mov	r18,r7
   82ae4:	983f8a1e 	bne	r19,zero,82910 <__alt_data_end+0xfff82910>
   82ae8:	8809883a 	mov	r4,r17
   82aec:	0084db80 	call	84db8 <__clzsi2>
   82af0:	10800804 	addi	r2,r2,32
   82af4:	10fffe04 	addi	r3,r2,-8
   82af8:	010007c4 	movi	r4,31
   82afc:	20ff890e 	bge	r4,r3,82924 <__alt_data_end+0xfff82924>
   82b00:	10bff604 	addi	r2,r2,-40
   82b04:	8884983a 	sll	r2,r17,r2
   82b08:	0023883a 	mov	r17,zero
   82b0c:	1c3f8c0e 	bge	r3,r16,82940 <__alt_data_end+0xfff82940>
   82b10:	023fe034 	movhi	r8,65408
   82b14:	423fffc4 	addi	r8,r8,-1
   82b18:	80e1c83a 	sub	r16,r16,r3
   82b1c:	1210703a 	and	r8,r2,r8
   82b20:	003f3806 	br	82804 <__alt_data_end+0xfff82804>
   82b24:	9007883a 	mov	r3,r18
   82b28:	0011883a 	mov	r8,zero
   82b2c:	0005883a 	mov	r2,zero
   82b30:	003f4c06 	br	82864 <__alt_data_end+0xfff82864>
   82b34:	498cb03a 	or	r6,r9,r6
   82b38:	300cc03a 	cmpne	r6,r6,zero
   82b3c:	0007883a 	mov	r3,zero
   82b40:	003f6806 	br	828e4 <__alt_data_end+0xfff828e4>
   82b44:	20009c1e 	bne	r4,zero,82db8 <__adddf3+0x630>
   82b48:	80800044 	addi	r2,r16,1
   82b4c:	1141ffcc 	andi	r5,r2,2047
   82b50:	01000044 	movi	r4,1
   82b54:	2140670e 	bge	r4,r5,82cf4 <__adddf3+0x56c>
   82b58:	0101ffc4 	movi	r4,2047
   82b5c:	11007f26 	beq	r2,r4,82d5c <__adddf3+0x5d4>
   82b60:	898d883a 	add	r6,r17,r6
   82b64:	4247883a 	add	r3,r8,r9
   82b68:	3451803a 	cmpltu	r8,r6,r17
   82b6c:	40d1883a 	add	r8,r8,r3
   82b70:	402297fa 	slli	r17,r8,31
   82b74:	300cd07a 	srli	r6,r6,1
   82b78:	4010d07a 	srli	r8,r8,1
   82b7c:	1021883a 	mov	r16,r2
   82b80:	89a2b03a 	or	r17,r17,r6
   82b84:	003f1f06 	br	82804 <__alt_data_end+0xfff82804>
   82b88:	0081ffc4 	movi	r2,2047
   82b8c:	80bf481e 	bne	r16,r2,828b0 <__alt_data_end+0xfff828b0>
   82b90:	003f1c06 	br	82804 <__alt_data_end+0xfff82804>
   82b94:	843ff844 	addi	r16,r16,-31
   82b98:	01000804 	movi	r4,32
   82b9c:	1406d83a 	srl	r3,r2,r16
   82ba0:	41005026 	beq	r8,r4,82ce4 <__adddf3+0x55c>
   82ba4:	01001004 	movi	r4,64
   82ba8:	2211c83a 	sub	r8,r4,r8
   82bac:	1204983a 	sll	r2,r2,r8
   82bb0:	88a2b03a 	or	r17,r17,r2
   82bb4:	8822c03a 	cmpne	r17,r17,zero
   82bb8:	1c62b03a 	or	r17,r3,r17
   82bbc:	0011883a 	mov	r8,zero
   82bc0:	0021883a 	mov	r16,zero
   82bc4:	003f7106 	br	8298c <__alt_data_end+0xfff8298c>
   82bc8:	193ff804 	addi	r4,r3,-32
   82bcc:	00800804 	movi	r2,32
   82bd0:	4908d83a 	srl	r4,r9,r4
   82bd4:	18804526 	beq	r3,r2,82cec <__adddf3+0x564>
   82bd8:	00801004 	movi	r2,64
   82bdc:	10c5c83a 	sub	r2,r2,r3
   82be0:	4886983a 	sll	r3,r9,r2
   82be4:	198cb03a 	or	r6,r3,r6
   82be8:	300cc03a 	cmpne	r6,r6,zero
   82bec:	218cb03a 	or	r6,r4,r6
   82bf0:	0007883a 	mov	r3,zero
   82bf4:	003f3b06 	br	828e4 <__alt_data_end+0xfff828e4>
   82bf8:	80002a26 	beq	r16,zero,82ca4 <__adddf3+0x51c>
   82bfc:	0101ffc4 	movi	r4,2047
   82c00:	11006826 	beq	r2,r4,82da4 <__adddf3+0x61c>
   82c04:	00c7c83a 	sub	r3,zero,r3
   82c08:	42002034 	orhi	r8,r8,128
   82c0c:	01000e04 	movi	r4,56
   82c10:	20c07c16 	blt	r4,r3,82e04 <__adddf3+0x67c>
   82c14:	010007c4 	movi	r4,31
   82c18:	20c0da16 	blt	r4,r3,82f84 <__adddf3+0x7fc>
   82c1c:	01000804 	movi	r4,32
   82c20:	20c9c83a 	sub	r4,r4,r3
   82c24:	4114983a 	sll	r10,r8,r4
   82c28:	88cad83a 	srl	r5,r17,r3
   82c2c:	8908983a 	sll	r4,r17,r4
   82c30:	40c6d83a 	srl	r3,r8,r3
   82c34:	5162b03a 	or	r17,r10,r5
   82c38:	2008c03a 	cmpne	r4,r4,zero
   82c3c:	8922b03a 	or	r17,r17,r4
   82c40:	3463c83a 	sub	r17,r6,r17
   82c44:	48c7c83a 	sub	r3,r9,r3
   82c48:	344d803a 	cmpltu	r6,r6,r17
   82c4c:	1991c83a 	sub	r8,r3,r6
   82c50:	1021883a 	mov	r16,r2
   82c54:	3825883a 	mov	r18,r7
   82c58:	003f2706 	br	828f8 <__alt_data_end+0xfff828f8>
   82c5c:	24d0b03a 	or	r8,r4,r19
   82c60:	40001b1e 	bne	r8,zero,82cd0 <__adddf3+0x548>
   82c64:	0005883a 	mov	r2,zero
   82c68:	0007883a 	mov	r3,zero
   82c6c:	0021883a 	mov	r16,zero
   82c70:	003f4d06 	br	829a8 <__alt_data_end+0xfff829a8>
   82c74:	008007c4 	movi	r2,31
   82c78:	11003c16 	blt	r2,r4,82d6c <__adddf3+0x5e4>
   82c7c:	00800804 	movi	r2,32
   82c80:	1105c83a 	sub	r2,r2,r4
   82c84:	488e983a 	sll	r7,r9,r2
   82c88:	310ad83a 	srl	r5,r6,r4
   82c8c:	3084983a 	sll	r2,r6,r2
   82c90:	4912d83a 	srl	r9,r9,r4
   82c94:	394ab03a 	or	r5,r7,r5
   82c98:	1004c03a 	cmpne	r2,r2,zero
   82c9c:	288ab03a 	or	r5,r5,r2
   82ca0:	003f5306 	br	829f0 <__alt_data_end+0xfff829f0>
   82ca4:	4448b03a 	or	r4,r8,r17
   82ca8:	20003e26 	beq	r4,zero,82da4 <__adddf3+0x61c>
   82cac:	00c6303a 	nor	r3,zero,r3
   82cb0:	18003a1e 	bne	r3,zero,82d9c <__adddf3+0x614>
   82cb4:	3463c83a 	sub	r17,r6,r17
   82cb8:	4a07c83a 	sub	r3,r9,r8
   82cbc:	344d803a 	cmpltu	r6,r6,r17
   82cc0:	1991c83a 	sub	r8,r3,r6
   82cc4:	1021883a 	mov	r16,r2
   82cc8:	3825883a 	mov	r18,r7
   82ccc:	003f0a06 	br	828f8 <__alt_data_end+0xfff828f8>
   82cd0:	2023883a 	mov	r17,r4
   82cd4:	003f0d06 	br	8290c <__alt_data_end+0xfff8290c>
   82cd8:	0081ffc4 	movi	r2,2047
   82cdc:	80bf3f1e 	bne	r16,r2,829dc <__alt_data_end+0xfff829dc>
   82ce0:	003ec806 	br	82804 <__alt_data_end+0xfff82804>
   82ce4:	0005883a 	mov	r2,zero
   82ce8:	003fb106 	br	82bb0 <__alt_data_end+0xfff82bb0>
   82cec:	0007883a 	mov	r3,zero
   82cf0:	003fbc06 	br	82be4 <__alt_data_end+0xfff82be4>
   82cf4:	4444b03a 	or	r2,r8,r17
   82cf8:	8000871e 	bne	r16,zero,82f18 <__adddf3+0x790>
   82cfc:	1000ba26 	beq	r2,zero,82fe8 <__adddf3+0x860>
   82d00:	4984b03a 	or	r2,r9,r6
   82d04:	103ebf26 	beq	r2,zero,82804 <__alt_data_end+0xfff82804>
   82d08:	8985883a 	add	r2,r17,r6
   82d0c:	4247883a 	add	r3,r8,r9
   82d10:	1451803a 	cmpltu	r8,r2,r17
   82d14:	40d1883a 	add	r8,r8,r3
   82d18:	40c0202c 	andhi	r3,r8,128
   82d1c:	1023883a 	mov	r17,r2
   82d20:	183f1a26 	beq	r3,zero,8298c <__alt_data_end+0xfff8298c>
   82d24:	00bfe034 	movhi	r2,65408
   82d28:	10bfffc4 	addi	r2,r2,-1
   82d2c:	2021883a 	mov	r16,r4
   82d30:	4090703a 	and	r8,r8,r2
   82d34:	003eb306 	br	82804 <__alt_data_end+0xfff82804>
   82d38:	4444b03a 	or	r2,r8,r17
   82d3c:	8000291e 	bne	r16,zero,82de4 <__adddf3+0x65c>
   82d40:	10004b1e 	bne	r2,zero,82e70 <__adddf3+0x6e8>
   82d44:	4990b03a 	or	r8,r9,r6
   82d48:	40008b26 	beq	r8,zero,82f78 <__adddf3+0x7f0>
   82d4c:	4811883a 	mov	r8,r9
   82d50:	3023883a 	mov	r17,r6
   82d54:	3825883a 	mov	r18,r7
   82d58:	003eaa06 	br	82804 <__alt_data_end+0xfff82804>
   82d5c:	1021883a 	mov	r16,r2
   82d60:	0011883a 	mov	r8,zero
   82d64:	0005883a 	mov	r2,zero
   82d68:	003f0f06 	br	829a8 <__alt_data_end+0xfff829a8>
   82d6c:	217ff804 	addi	r5,r4,-32
   82d70:	00800804 	movi	r2,32
   82d74:	494ad83a 	srl	r5,r9,r5
   82d78:	20807d26 	beq	r4,r2,82f70 <__adddf3+0x7e8>
   82d7c:	00801004 	movi	r2,64
   82d80:	1109c83a 	sub	r4,r2,r4
   82d84:	4912983a 	sll	r9,r9,r4
   82d88:	498cb03a 	or	r6,r9,r6
   82d8c:	300cc03a 	cmpne	r6,r6,zero
   82d90:	298ab03a 	or	r5,r5,r6
   82d94:	0013883a 	mov	r9,zero
   82d98:	003f1506 	br	829f0 <__alt_data_end+0xfff829f0>
   82d9c:	0101ffc4 	movi	r4,2047
   82da0:	113f9a1e 	bne	r2,r4,82c0c <__alt_data_end+0xfff82c0c>
   82da4:	4811883a 	mov	r8,r9
   82da8:	3023883a 	mov	r17,r6
   82dac:	1021883a 	mov	r16,r2
   82db0:	3825883a 	mov	r18,r7
   82db4:	003e9306 	br	82804 <__alt_data_end+0xfff82804>
   82db8:	8000161e 	bne	r16,zero,82e14 <__adddf3+0x68c>
   82dbc:	444ab03a 	or	r5,r8,r17
   82dc0:	28005126 	beq	r5,zero,82f08 <__adddf3+0x780>
   82dc4:	0108303a 	nor	r4,zero,r4
   82dc8:	20004d1e 	bne	r4,zero,82f00 <__adddf3+0x778>
   82dcc:	89a3883a 	add	r17,r17,r6
   82dd0:	4253883a 	add	r9,r8,r9
   82dd4:	898d803a 	cmpltu	r6,r17,r6
   82dd8:	3251883a 	add	r8,r6,r9
   82ddc:	1021883a 	mov	r16,r2
   82de0:	003f0806 	br	82a04 <__alt_data_end+0xfff82a04>
   82de4:	1000301e 	bne	r2,zero,82ea8 <__adddf3+0x720>
   82de8:	4984b03a 	or	r2,r9,r6
   82dec:	10007126 	beq	r2,zero,82fb4 <__adddf3+0x82c>
   82df0:	4811883a 	mov	r8,r9
   82df4:	3023883a 	mov	r17,r6
   82df8:	3825883a 	mov	r18,r7
   82dfc:	0401ffc4 	movi	r16,2047
   82e00:	003e8006 	br	82804 <__alt_data_end+0xfff82804>
   82e04:	4462b03a 	or	r17,r8,r17
   82e08:	8822c03a 	cmpne	r17,r17,zero
   82e0c:	0007883a 	mov	r3,zero
   82e10:	003f8b06 	br	82c40 <__alt_data_end+0xfff82c40>
   82e14:	0141ffc4 	movi	r5,2047
   82e18:	11403b26 	beq	r2,r5,82f08 <__adddf3+0x780>
   82e1c:	0109c83a 	sub	r4,zero,r4
   82e20:	42002034 	orhi	r8,r8,128
   82e24:	01400e04 	movi	r5,56
   82e28:	29006716 	blt	r5,r4,82fc8 <__adddf3+0x840>
   82e2c:	014007c4 	movi	r5,31
   82e30:	29007016 	blt	r5,r4,82ff4 <__adddf3+0x86c>
   82e34:	01400804 	movi	r5,32
   82e38:	290bc83a 	sub	r5,r5,r4
   82e3c:	4154983a 	sll	r10,r8,r5
   82e40:	890ed83a 	srl	r7,r17,r4
   82e44:	894a983a 	sll	r5,r17,r5
   82e48:	4108d83a 	srl	r4,r8,r4
   82e4c:	51e2b03a 	or	r17,r10,r7
   82e50:	280ac03a 	cmpne	r5,r5,zero
   82e54:	8962b03a 	or	r17,r17,r5
   82e58:	89a3883a 	add	r17,r17,r6
   82e5c:	2253883a 	add	r9,r4,r9
   82e60:	898d803a 	cmpltu	r6,r17,r6
   82e64:	3251883a 	add	r8,r6,r9
   82e68:	1021883a 	mov	r16,r2
   82e6c:	003ee506 	br	82a04 <__alt_data_end+0xfff82a04>
   82e70:	4984b03a 	or	r2,r9,r6
   82e74:	103e6326 	beq	r2,zero,82804 <__alt_data_end+0xfff82804>
   82e78:	8987c83a 	sub	r3,r17,r6
   82e7c:	88c9803a 	cmpltu	r4,r17,r3
   82e80:	4245c83a 	sub	r2,r8,r9
   82e84:	1105c83a 	sub	r2,r2,r4
   82e88:	1100202c 	andhi	r4,r2,128
   82e8c:	203ebb26 	beq	r4,zero,8297c <__alt_data_end+0xfff8297c>
   82e90:	3463c83a 	sub	r17,r6,r17
   82e94:	4a07c83a 	sub	r3,r9,r8
   82e98:	344d803a 	cmpltu	r6,r6,r17
   82e9c:	1991c83a 	sub	r8,r3,r6
   82ea0:	3825883a 	mov	r18,r7
   82ea4:	003e5706 	br	82804 <__alt_data_end+0xfff82804>
   82ea8:	4984b03a 	or	r2,r9,r6
   82eac:	10002e26 	beq	r2,zero,82f68 <__adddf3+0x7e0>
   82eb0:	4004d0fa 	srli	r2,r8,3
   82eb4:	8822d0fa 	srli	r17,r17,3
   82eb8:	4010977a 	slli	r8,r8,29
   82ebc:	10c0022c 	andhi	r3,r2,8
   82ec0:	4462b03a 	or	r17,r8,r17
   82ec4:	18000826 	beq	r3,zero,82ee8 <__adddf3+0x760>
   82ec8:	4808d0fa 	srli	r4,r9,3
   82ecc:	20c0022c 	andhi	r3,r4,8
   82ed0:	1800051e 	bne	r3,zero,82ee8 <__adddf3+0x760>
   82ed4:	300cd0fa 	srli	r6,r6,3
   82ed8:	4806977a 	slli	r3,r9,29
   82edc:	2005883a 	mov	r2,r4
   82ee0:	3825883a 	mov	r18,r7
   82ee4:	19a2b03a 	or	r17,r3,r6
   82ee8:	8810d77a 	srli	r8,r17,29
   82eec:	100490fa 	slli	r2,r2,3
   82ef0:	882290fa 	slli	r17,r17,3
   82ef4:	0401ffc4 	movi	r16,2047
   82ef8:	4090b03a 	or	r8,r8,r2
   82efc:	003e4106 	br	82804 <__alt_data_end+0xfff82804>
   82f00:	0141ffc4 	movi	r5,2047
   82f04:	117fc71e 	bne	r2,r5,82e24 <__alt_data_end+0xfff82e24>
   82f08:	4811883a 	mov	r8,r9
   82f0c:	3023883a 	mov	r17,r6
   82f10:	1021883a 	mov	r16,r2
   82f14:	003e3b06 	br	82804 <__alt_data_end+0xfff82804>
   82f18:	10002f26 	beq	r2,zero,82fd8 <__adddf3+0x850>
   82f1c:	4984b03a 	or	r2,r9,r6
   82f20:	10001126 	beq	r2,zero,82f68 <__adddf3+0x7e0>
   82f24:	4004d0fa 	srli	r2,r8,3
   82f28:	8822d0fa 	srli	r17,r17,3
   82f2c:	4010977a 	slli	r8,r8,29
   82f30:	10c0022c 	andhi	r3,r2,8
   82f34:	4462b03a 	or	r17,r8,r17
   82f38:	183feb26 	beq	r3,zero,82ee8 <__alt_data_end+0xfff82ee8>
   82f3c:	4808d0fa 	srli	r4,r9,3
   82f40:	20c0022c 	andhi	r3,r4,8
   82f44:	183fe81e 	bne	r3,zero,82ee8 <__alt_data_end+0xfff82ee8>
   82f48:	300cd0fa 	srli	r6,r6,3
   82f4c:	4806977a 	slli	r3,r9,29
   82f50:	2005883a 	mov	r2,r4
   82f54:	19a2b03a 	or	r17,r3,r6
   82f58:	003fe306 	br	82ee8 <__alt_data_end+0xfff82ee8>
   82f5c:	0011883a 	mov	r8,zero
   82f60:	0005883a 	mov	r2,zero
   82f64:	003e3f06 	br	82864 <__alt_data_end+0xfff82864>
   82f68:	0401ffc4 	movi	r16,2047
   82f6c:	003e2506 	br	82804 <__alt_data_end+0xfff82804>
   82f70:	0013883a 	mov	r9,zero
   82f74:	003f8406 	br	82d88 <__alt_data_end+0xfff82d88>
   82f78:	0005883a 	mov	r2,zero
   82f7c:	0007883a 	mov	r3,zero
   82f80:	003e8906 	br	829a8 <__alt_data_end+0xfff829a8>
   82f84:	197ff804 	addi	r5,r3,-32
   82f88:	01000804 	movi	r4,32
   82f8c:	414ad83a 	srl	r5,r8,r5
   82f90:	19002426 	beq	r3,r4,83024 <__adddf3+0x89c>
   82f94:	01001004 	movi	r4,64
   82f98:	20c7c83a 	sub	r3,r4,r3
   82f9c:	40c6983a 	sll	r3,r8,r3
   82fa0:	1c46b03a 	or	r3,r3,r17
   82fa4:	1806c03a 	cmpne	r3,r3,zero
   82fa8:	28e2b03a 	or	r17,r5,r3
   82fac:	0007883a 	mov	r3,zero
   82fb0:	003f2306 	br	82c40 <__alt_data_end+0xfff82c40>
   82fb4:	0007883a 	mov	r3,zero
   82fb8:	5811883a 	mov	r8,r11
   82fbc:	00bfffc4 	movi	r2,-1
   82fc0:	0401ffc4 	movi	r16,2047
   82fc4:	003e7806 	br	829a8 <__alt_data_end+0xfff829a8>
   82fc8:	4462b03a 	or	r17,r8,r17
   82fcc:	8822c03a 	cmpne	r17,r17,zero
   82fd0:	0009883a 	mov	r4,zero
   82fd4:	003fa006 	br	82e58 <__alt_data_end+0xfff82e58>
   82fd8:	4811883a 	mov	r8,r9
   82fdc:	3023883a 	mov	r17,r6
   82fe0:	0401ffc4 	movi	r16,2047
   82fe4:	003e0706 	br	82804 <__alt_data_end+0xfff82804>
   82fe8:	4811883a 	mov	r8,r9
   82fec:	3023883a 	mov	r17,r6
   82ff0:	003e0406 	br	82804 <__alt_data_end+0xfff82804>
   82ff4:	21fff804 	addi	r7,r4,-32
   82ff8:	01400804 	movi	r5,32
   82ffc:	41ced83a 	srl	r7,r8,r7
   83000:	21400a26 	beq	r4,r5,8302c <__adddf3+0x8a4>
   83004:	01401004 	movi	r5,64
   83008:	2909c83a 	sub	r4,r5,r4
   8300c:	4108983a 	sll	r4,r8,r4
   83010:	2448b03a 	or	r4,r4,r17
   83014:	2008c03a 	cmpne	r4,r4,zero
   83018:	3922b03a 	or	r17,r7,r4
   8301c:	0009883a 	mov	r4,zero
   83020:	003f8d06 	br	82e58 <__alt_data_end+0xfff82e58>
   83024:	0007883a 	mov	r3,zero
   83028:	003fdd06 	br	82fa0 <__alt_data_end+0xfff82fa0>
   8302c:	0009883a 	mov	r4,zero
   83030:	003ff706 	br	83010 <__alt_data_end+0xfff83010>

00083034 <__divdf3>:
   83034:	defff204 	addi	sp,sp,-56
   83038:	dd400915 	stw	r21,36(sp)
   8303c:	282ad53a 	srli	r21,r5,20
   83040:	dd000815 	stw	r20,32(sp)
   83044:	2828d7fa 	srli	r20,r5,31
   83048:	dc000415 	stw	r16,16(sp)
   8304c:	04000434 	movhi	r16,16
   83050:	df000c15 	stw	fp,48(sp)
   83054:	843fffc4 	addi	r16,r16,-1
   83058:	dfc00d15 	stw	ra,52(sp)
   8305c:	ddc00b15 	stw	r23,44(sp)
   83060:	dd800a15 	stw	r22,40(sp)
   83064:	dcc00715 	stw	r19,28(sp)
   83068:	dc800615 	stw	r18,24(sp)
   8306c:	dc400515 	stw	r17,20(sp)
   83070:	ad41ffcc 	andi	r21,r21,2047
   83074:	2c20703a 	and	r16,r5,r16
   83078:	a7003fcc 	andi	fp,r20,255
   8307c:	a8006126 	beq	r21,zero,83204 <__divdf3+0x1d0>
   83080:	0081ffc4 	movi	r2,2047
   83084:	2025883a 	mov	r18,r4
   83088:	a8803726 	beq	r21,r2,83168 <__divdf3+0x134>
   8308c:	80800434 	orhi	r2,r16,16
   83090:	100490fa 	slli	r2,r2,3
   83094:	2020d77a 	srli	r16,r4,29
   83098:	202490fa 	slli	r18,r4,3
   8309c:	ad7f0044 	addi	r21,r21,-1023
   830a0:	80a0b03a 	or	r16,r16,r2
   830a4:	0027883a 	mov	r19,zero
   830a8:	0013883a 	mov	r9,zero
   830ac:	3804d53a 	srli	r2,r7,20
   830b0:	382cd7fa 	srli	r22,r7,31
   830b4:	04400434 	movhi	r17,16
   830b8:	8c7fffc4 	addi	r17,r17,-1
   830bc:	1081ffcc 	andi	r2,r2,2047
   830c0:	3011883a 	mov	r8,r6
   830c4:	3c62703a 	and	r17,r7,r17
   830c8:	b5c03fcc 	andi	r23,r22,255
   830cc:	10006c26 	beq	r2,zero,83280 <__divdf3+0x24c>
   830d0:	00c1ffc4 	movi	r3,2047
   830d4:	10c06426 	beq	r2,r3,83268 <__divdf3+0x234>
   830d8:	88c00434 	orhi	r3,r17,16
   830dc:	180690fa 	slli	r3,r3,3
   830e0:	3022d77a 	srli	r17,r6,29
   830e4:	301090fa 	slli	r8,r6,3
   830e8:	10bf0044 	addi	r2,r2,-1023
   830ec:	88e2b03a 	or	r17,r17,r3
   830f0:	000f883a 	mov	r7,zero
   830f4:	a58cf03a 	xor	r6,r20,r22
   830f8:	3cc8b03a 	or	r4,r7,r19
   830fc:	a8abc83a 	sub	r21,r21,r2
   83100:	008003c4 	movi	r2,15
   83104:	3007883a 	mov	r3,r6
   83108:	34c03fcc 	andi	r19,r6,255
   8310c:	11009036 	bltu	r2,r4,83350 <__divdf3+0x31c>
   83110:	200890ba 	slli	r4,r4,2
   83114:	00800234 	movhi	r2,8
   83118:	108c4a04 	addi	r2,r2,12584
   8311c:	2089883a 	add	r4,r4,r2
   83120:	20800017 	ldw	r2,0(r4)
   83124:	1000683a 	jmp	r2
   83128:	00083350 	cmplti	zero,zero,8397
   8312c:	000831a0 	cmpeqi	zero,zero,8390
   83130:	00083340 	call	8334 <__reset-0x77ccc>
   83134:	00083194 	movui	zero,8390
   83138:	00083340 	call	8334 <__reset-0x77ccc>
   8313c:	00083314 	movui	zero,8396
   83140:	00083340 	call	8334 <__reset-0x77ccc>
   83144:	00083194 	movui	zero,8390
   83148:	000831a0 	cmpeqi	zero,zero,8390
   8314c:	000831a0 	cmpeqi	zero,zero,8390
   83150:	00083314 	movui	zero,8396
   83154:	00083194 	movui	zero,8390
   83158:	00083184 	movi	zero,8390
   8315c:	00083184 	movi	zero,8390
   83160:	00083184 	movi	zero,8390
   83164:	00083634 	movhi	zero,8408
   83168:	2404b03a 	or	r2,r4,r16
   8316c:	1000661e 	bne	r2,zero,83308 <__divdf3+0x2d4>
   83170:	04c00204 	movi	r19,8
   83174:	0021883a 	mov	r16,zero
   83178:	0025883a 	mov	r18,zero
   8317c:	02400084 	movi	r9,2
   83180:	003fca06 	br	830ac <__alt_data_end+0xfff830ac>
   83184:	8023883a 	mov	r17,r16
   83188:	9011883a 	mov	r8,r18
   8318c:	e02f883a 	mov	r23,fp
   83190:	480f883a 	mov	r7,r9
   83194:	00800084 	movi	r2,2
   83198:	3881311e 	bne	r7,r2,83660 <__divdf3+0x62c>
   8319c:	b827883a 	mov	r19,r23
   831a0:	98c0004c 	andi	r3,r19,1
   831a4:	0081ffc4 	movi	r2,2047
   831a8:	000b883a 	mov	r5,zero
   831ac:	0025883a 	mov	r18,zero
   831b0:	1004953a 	slli	r2,r2,20
   831b4:	18c03fcc 	andi	r3,r3,255
   831b8:	04400434 	movhi	r17,16
   831bc:	8c7fffc4 	addi	r17,r17,-1
   831c0:	180697fa 	slli	r3,r3,31
   831c4:	2c4a703a 	and	r5,r5,r17
   831c8:	288ab03a 	or	r5,r5,r2
   831cc:	28c6b03a 	or	r3,r5,r3
   831d0:	9005883a 	mov	r2,r18
   831d4:	dfc00d17 	ldw	ra,52(sp)
   831d8:	df000c17 	ldw	fp,48(sp)
   831dc:	ddc00b17 	ldw	r23,44(sp)
   831e0:	dd800a17 	ldw	r22,40(sp)
   831e4:	dd400917 	ldw	r21,36(sp)
   831e8:	dd000817 	ldw	r20,32(sp)
   831ec:	dcc00717 	ldw	r19,28(sp)
   831f0:	dc800617 	ldw	r18,24(sp)
   831f4:	dc400517 	ldw	r17,20(sp)
   831f8:	dc000417 	ldw	r16,16(sp)
   831fc:	dec00e04 	addi	sp,sp,56
   83200:	f800283a 	ret
   83204:	2404b03a 	or	r2,r4,r16
   83208:	2027883a 	mov	r19,r4
   8320c:	10003926 	beq	r2,zero,832f4 <__divdf3+0x2c0>
   83210:	80012e26 	beq	r16,zero,836cc <__divdf3+0x698>
   83214:	8009883a 	mov	r4,r16
   83218:	d9800315 	stw	r6,12(sp)
   8321c:	d9c00215 	stw	r7,8(sp)
   83220:	0084db80 	call	84db8 <__clzsi2>
   83224:	d9800317 	ldw	r6,12(sp)
   83228:	d9c00217 	ldw	r7,8(sp)
   8322c:	113ffd44 	addi	r4,r2,-11
   83230:	00c00704 	movi	r3,28
   83234:	19012116 	blt	r3,r4,836bc <__divdf3+0x688>
   83238:	00c00744 	movi	r3,29
   8323c:	147ffe04 	addi	r17,r2,-8
   83240:	1907c83a 	sub	r3,r3,r4
   83244:	8460983a 	sll	r16,r16,r17
   83248:	98c6d83a 	srl	r3,r19,r3
   8324c:	9c64983a 	sll	r18,r19,r17
   83250:	1c20b03a 	or	r16,r3,r16
   83254:	1080fcc4 	addi	r2,r2,1011
   83258:	00abc83a 	sub	r21,zero,r2
   8325c:	0027883a 	mov	r19,zero
   83260:	0013883a 	mov	r9,zero
   83264:	003f9106 	br	830ac <__alt_data_end+0xfff830ac>
   83268:	3446b03a 	or	r3,r6,r17
   8326c:	18001f1e 	bne	r3,zero,832ec <__divdf3+0x2b8>
   83270:	0023883a 	mov	r17,zero
   83274:	0011883a 	mov	r8,zero
   83278:	01c00084 	movi	r7,2
   8327c:	003f9d06 	br	830f4 <__alt_data_end+0xfff830f4>
   83280:	3446b03a 	or	r3,r6,r17
   83284:	18001526 	beq	r3,zero,832dc <__divdf3+0x2a8>
   83288:	88011b26 	beq	r17,zero,836f8 <__divdf3+0x6c4>
   8328c:	8809883a 	mov	r4,r17
   83290:	d9800315 	stw	r6,12(sp)
   83294:	da400115 	stw	r9,4(sp)
   83298:	0084db80 	call	84db8 <__clzsi2>
   8329c:	d9800317 	ldw	r6,12(sp)
   832a0:	da400117 	ldw	r9,4(sp)
   832a4:	113ffd44 	addi	r4,r2,-11
   832a8:	00c00704 	movi	r3,28
   832ac:	19010e16 	blt	r3,r4,836e8 <__divdf3+0x6b4>
   832b0:	00c00744 	movi	r3,29
   832b4:	123ffe04 	addi	r8,r2,-8
   832b8:	1907c83a 	sub	r3,r3,r4
   832bc:	8a22983a 	sll	r17,r17,r8
   832c0:	30c6d83a 	srl	r3,r6,r3
   832c4:	3210983a 	sll	r8,r6,r8
   832c8:	1c62b03a 	or	r17,r3,r17
   832cc:	1080fcc4 	addi	r2,r2,1011
   832d0:	0085c83a 	sub	r2,zero,r2
   832d4:	000f883a 	mov	r7,zero
   832d8:	003f8606 	br	830f4 <__alt_data_end+0xfff830f4>
   832dc:	0023883a 	mov	r17,zero
   832e0:	0011883a 	mov	r8,zero
   832e4:	01c00044 	movi	r7,1
   832e8:	003f8206 	br	830f4 <__alt_data_end+0xfff830f4>
   832ec:	01c000c4 	movi	r7,3
   832f0:	003f8006 	br	830f4 <__alt_data_end+0xfff830f4>
   832f4:	04c00104 	movi	r19,4
   832f8:	0021883a 	mov	r16,zero
   832fc:	0025883a 	mov	r18,zero
   83300:	02400044 	movi	r9,1
   83304:	003f6906 	br	830ac <__alt_data_end+0xfff830ac>
   83308:	04c00304 	movi	r19,12
   8330c:	024000c4 	movi	r9,3
   83310:	003f6606 	br	830ac <__alt_data_end+0xfff830ac>
   83314:	01400434 	movhi	r5,16
   83318:	0007883a 	mov	r3,zero
   8331c:	297fffc4 	addi	r5,r5,-1
   83320:	04bfffc4 	movi	r18,-1
   83324:	0081ffc4 	movi	r2,2047
   83328:	003fa106 	br	831b0 <__alt_data_end+0xfff831b0>
   8332c:	00c00044 	movi	r3,1
   83330:	1887c83a 	sub	r3,r3,r2
   83334:	01000e04 	movi	r4,56
   83338:	20c1210e 	bge	r4,r3,837c0 <__divdf3+0x78c>
   8333c:	98c0004c 	andi	r3,r19,1
   83340:	0005883a 	mov	r2,zero
   83344:	000b883a 	mov	r5,zero
   83348:	0025883a 	mov	r18,zero
   8334c:	003f9806 	br	831b0 <__alt_data_end+0xfff831b0>
   83350:	8c00fd36 	bltu	r17,r16,83748 <__divdf3+0x714>
   83354:	8440fb26 	beq	r16,r17,83744 <__divdf3+0x710>
   83358:	8007883a 	mov	r3,r16
   8335c:	ad7fffc4 	addi	r21,r21,-1
   83360:	0021883a 	mov	r16,zero
   83364:	4004d63a 	srli	r2,r8,24
   83368:	8822923a 	slli	r17,r17,8
   8336c:	1809883a 	mov	r4,r3
   83370:	402c923a 	slli	r22,r8,8
   83374:	88b8b03a 	or	fp,r17,r2
   83378:	e028d43a 	srli	r20,fp,16
   8337c:	d8c00015 	stw	r3,0(sp)
   83380:	e5ffffcc 	andi	r23,fp,65535
   83384:	a00b883a 	mov	r5,r20
   83388:	00811cc0 	call	811cc <__udivsi3>
   8338c:	d8c00017 	ldw	r3,0(sp)
   83390:	a00b883a 	mov	r5,r20
   83394:	d8800315 	stw	r2,12(sp)
   83398:	1809883a 	mov	r4,r3
   8339c:	00812300 	call	81230 <__umodsi3>
   833a0:	d9800317 	ldw	r6,12(sp)
   833a4:	1006943a 	slli	r3,r2,16
   833a8:	9004d43a 	srli	r2,r18,16
   833ac:	b9a3383a 	mul	r17,r23,r6
   833b0:	10c4b03a 	or	r2,r2,r3
   833b4:	1440062e 	bgeu	r2,r17,833d0 <__divdf3+0x39c>
   833b8:	1705883a 	add	r2,r2,fp
   833bc:	30ffffc4 	addi	r3,r6,-1
   833c0:	1700ee36 	bltu	r2,fp,8377c <__divdf3+0x748>
   833c4:	1440ed2e 	bgeu	r2,r17,8377c <__divdf3+0x748>
   833c8:	31bfff84 	addi	r6,r6,-2
   833cc:	1705883a 	add	r2,r2,fp
   833d0:	1463c83a 	sub	r17,r2,r17
   833d4:	a00b883a 	mov	r5,r20
   833d8:	8809883a 	mov	r4,r17
   833dc:	d9800315 	stw	r6,12(sp)
   833e0:	00811cc0 	call	811cc <__udivsi3>
   833e4:	a00b883a 	mov	r5,r20
   833e8:	8809883a 	mov	r4,r17
   833ec:	d8800215 	stw	r2,8(sp)
   833f0:	00812300 	call	81230 <__umodsi3>
   833f4:	d9c00217 	ldw	r7,8(sp)
   833f8:	1004943a 	slli	r2,r2,16
   833fc:	94bfffcc 	andi	r18,r18,65535
   83400:	b9d1383a 	mul	r8,r23,r7
   83404:	90a4b03a 	or	r18,r18,r2
   83408:	d9800317 	ldw	r6,12(sp)
   8340c:	9200062e 	bgeu	r18,r8,83428 <__divdf3+0x3f4>
   83410:	9725883a 	add	r18,r18,fp
   83414:	38bfffc4 	addi	r2,r7,-1
   83418:	9700d636 	bltu	r18,fp,83774 <__divdf3+0x740>
   8341c:	9200d52e 	bgeu	r18,r8,83774 <__divdf3+0x740>
   83420:	39ffff84 	addi	r7,r7,-2
   83424:	9725883a 	add	r18,r18,fp
   83428:	3004943a 	slli	r2,r6,16
   8342c:	b012d43a 	srli	r9,r22,16
   83430:	b1bfffcc 	andi	r6,r22,65535
   83434:	11e2b03a 	or	r17,r2,r7
   83438:	8806d43a 	srli	r3,r17,16
   8343c:	893fffcc 	andi	r4,r17,65535
   83440:	218b383a 	mul	r5,r4,r6
   83444:	30c5383a 	mul	r2,r6,r3
   83448:	2249383a 	mul	r4,r4,r9
   8344c:	280ed43a 	srli	r7,r5,16
   83450:	9225c83a 	sub	r18,r18,r8
   83454:	2089883a 	add	r4,r4,r2
   83458:	3909883a 	add	r4,r7,r4
   8345c:	1a47383a 	mul	r3,r3,r9
   83460:	2080022e 	bgeu	r4,r2,8346c <__divdf3+0x438>
   83464:	00800074 	movhi	r2,1
   83468:	1887883a 	add	r3,r3,r2
   8346c:	2004d43a 	srli	r2,r4,16
   83470:	2008943a 	slli	r4,r4,16
   83474:	297fffcc 	andi	r5,r5,65535
   83478:	10c7883a 	add	r3,r2,r3
   8347c:	2149883a 	add	r4,r4,r5
   83480:	90c0a536 	bltu	r18,r3,83718 <__divdf3+0x6e4>
   83484:	90c0bf26 	beq	r18,r3,83784 <__divdf3+0x750>
   83488:	90c7c83a 	sub	r3,r18,r3
   8348c:	810fc83a 	sub	r7,r16,r4
   83490:	81e5803a 	cmpltu	r18,r16,r7
   83494:	1ca5c83a 	sub	r18,r3,r18
   83498:	e480c126 	beq	fp,r18,837a0 <__divdf3+0x76c>
   8349c:	a00b883a 	mov	r5,r20
   834a0:	9009883a 	mov	r4,r18
   834a4:	d9800315 	stw	r6,12(sp)
   834a8:	d9c00215 	stw	r7,8(sp)
   834ac:	da400115 	stw	r9,4(sp)
   834b0:	00811cc0 	call	811cc <__udivsi3>
   834b4:	a00b883a 	mov	r5,r20
   834b8:	9009883a 	mov	r4,r18
   834bc:	d8800015 	stw	r2,0(sp)
   834c0:	00812300 	call	81230 <__umodsi3>
   834c4:	d9c00217 	ldw	r7,8(sp)
   834c8:	da000017 	ldw	r8,0(sp)
   834cc:	1006943a 	slli	r3,r2,16
   834d0:	3804d43a 	srli	r2,r7,16
   834d4:	ba21383a 	mul	r16,r23,r8
   834d8:	d9800317 	ldw	r6,12(sp)
   834dc:	10c4b03a 	or	r2,r2,r3
   834e0:	da400117 	ldw	r9,4(sp)
   834e4:	1400062e 	bgeu	r2,r16,83500 <__divdf3+0x4cc>
   834e8:	1705883a 	add	r2,r2,fp
   834ec:	40ffffc4 	addi	r3,r8,-1
   834f0:	1700ad36 	bltu	r2,fp,837a8 <__divdf3+0x774>
   834f4:	1400ac2e 	bgeu	r2,r16,837a8 <__divdf3+0x774>
   834f8:	423fff84 	addi	r8,r8,-2
   834fc:	1705883a 	add	r2,r2,fp
   83500:	1421c83a 	sub	r16,r2,r16
   83504:	a00b883a 	mov	r5,r20
   83508:	8009883a 	mov	r4,r16
   8350c:	d9800315 	stw	r6,12(sp)
   83510:	d9c00215 	stw	r7,8(sp)
   83514:	da000015 	stw	r8,0(sp)
   83518:	da400115 	stw	r9,4(sp)
   8351c:	00811cc0 	call	811cc <__udivsi3>
   83520:	8009883a 	mov	r4,r16
   83524:	a00b883a 	mov	r5,r20
   83528:	1025883a 	mov	r18,r2
   8352c:	00812300 	call	81230 <__umodsi3>
   83530:	d9c00217 	ldw	r7,8(sp)
   83534:	1004943a 	slli	r2,r2,16
   83538:	bcaf383a 	mul	r23,r23,r18
   8353c:	393fffcc 	andi	r4,r7,65535
   83540:	2088b03a 	or	r4,r4,r2
   83544:	d9800317 	ldw	r6,12(sp)
   83548:	da000017 	ldw	r8,0(sp)
   8354c:	da400117 	ldw	r9,4(sp)
   83550:	25c0062e 	bgeu	r4,r23,8356c <__divdf3+0x538>
   83554:	2709883a 	add	r4,r4,fp
   83558:	90bfffc4 	addi	r2,r18,-1
   8355c:	27009436 	bltu	r4,fp,837b0 <__divdf3+0x77c>
   83560:	25c0932e 	bgeu	r4,r23,837b0 <__divdf3+0x77c>
   83564:	94bfff84 	addi	r18,r18,-2
   83568:	2709883a 	add	r4,r4,fp
   8356c:	4004943a 	slli	r2,r8,16
   83570:	25efc83a 	sub	r23,r4,r23
   83574:	1490b03a 	or	r8,r2,r18
   83578:	4008d43a 	srli	r4,r8,16
   8357c:	40ffffcc 	andi	r3,r8,65535
   83580:	30c5383a 	mul	r2,r6,r3
   83584:	1a47383a 	mul	r3,r3,r9
   83588:	310d383a 	mul	r6,r6,r4
   8358c:	100ad43a 	srli	r5,r2,16
   83590:	4913383a 	mul	r9,r9,r4
   83594:	1987883a 	add	r3,r3,r6
   83598:	28c7883a 	add	r3,r5,r3
   8359c:	1980022e 	bgeu	r3,r6,835a8 <__divdf3+0x574>
   835a0:	01000074 	movhi	r4,1
   835a4:	4913883a 	add	r9,r9,r4
   835a8:	1808d43a 	srli	r4,r3,16
   835ac:	1806943a 	slli	r3,r3,16
   835b0:	10bfffcc 	andi	r2,r2,65535
   835b4:	2253883a 	add	r9,r4,r9
   835b8:	1887883a 	add	r3,r3,r2
   835bc:	ba403836 	bltu	r23,r9,836a0 <__divdf3+0x66c>
   835c0:	ba403626 	beq	r23,r9,8369c <__divdf3+0x668>
   835c4:	42000054 	ori	r8,r8,1
   835c8:	a880ffc4 	addi	r2,r21,1023
   835cc:	00bf570e 	bge	zero,r2,8332c <__alt_data_end+0xfff8332c>
   835d0:	40c001cc 	andi	r3,r8,7
   835d4:	18000726 	beq	r3,zero,835f4 <__divdf3+0x5c0>
   835d8:	40c003cc 	andi	r3,r8,15
   835dc:	01000104 	movi	r4,4
   835e0:	19000426 	beq	r3,r4,835f4 <__divdf3+0x5c0>
   835e4:	4107883a 	add	r3,r8,r4
   835e8:	1a11803a 	cmpltu	r8,r3,r8
   835ec:	8a23883a 	add	r17,r17,r8
   835f0:	1811883a 	mov	r8,r3
   835f4:	88c0402c 	andhi	r3,r17,256
   835f8:	18000426 	beq	r3,zero,8360c <__divdf3+0x5d8>
   835fc:	00ffc034 	movhi	r3,65280
   83600:	18ffffc4 	addi	r3,r3,-1
   83604:	a8810004 	addi	r2,r21,1024
   83608:	88e2703a 	and	r17,r17,r3
   8360c:	00c1ff84 	movi	r3,2046
   83610:	18bee316 	blt	r3,r2,831a0 <__alt_data_end+0xfff831a0>
   83614:	8824977a 	slli	r18,r17,29
   83618:	4010d0fa 	srli	r8,r8,3
   8361c:	8822927a 	slli	r17,r17,9
   83620:	1081ffcc 	andi	r2,r2,2047
   83624:	9224b03a 	or	r18,r18,r8
   83628:	880ad33a 	srli	r5,r17,12
   8362c:	98c0004c 	andi	r3,r19,1
   83630:	003edf06 	br	831b0 <__alt_data_end+0xfff831b0>
   83634:	8080022c 	andhi	r2,r16,8
   83638:	10001226 	beq	r2,zero,83684 <__divdf3+0x650>
   8363c:	8880022c 	andhi	r2,r17,8
   83640:	1000101e 	bne	r2,zero,83684 <__divdf3+0x650>
   83644:	00800434 	movhi	r2,16
   83648:	89400234 	orhi	r5,r17,8
   8364c:	10bfffc4 	addi	r2,r2,-1
   83650:	b007883a 	mov	r3,r22
   83654:	288a703a 	and	r5,r5,r2
   83658:	4025883a 	mov	r18,r8
   8365c:	003f3106 	br	83324 <__alt_data_end+0xfff83324>
   83660:	008000c4 	movi	r2,3
   83664:	3880a626 	beq	r7,r2,83900 <__divdf3+0x8cc>
   83668:	00800044 	movi	r2,1
   8366c:	3880521e 	bne	r7,r2,837b8 <__divdf3+0x784>
   83670:	b807883a 	mov	r3,r23
   83674:	0005883a 	mov	r2,zero
   83678:	000b883a 	mov	r5,zero
   8367c:	0025883a 	mov	r18,zero
   83680:	003ecb06 	br	831b0 <__alt_data_end+0xfff831b0>
   83684:	00800434 	movhi	r2,16
   83688:	81400234 	orhi	r5,r16,8
   8368c:	10bfffc4 	addi	r2,r2,-1
   83690:	a007883a 	mov	r3,r20
   83694:	288a703a 	and	r5,r5,r2
   83698:	003f2206 	br	83324 <__alt_data_end+0xfff83324>
   8369c:	183fca26 	beq	r3,zero,835c8 <__alt_data_end+0xfff835c8>
   836a0:	e5ef883a 	add	r23,fp,r23
   836a4:	40bfffc4 	addi	r2,r8,-1
   836a8:	bf00392e 	bgeu	r23,fp,83790 <__divdf3+0x75c>
   836ac:	1011883a 	mov	r8,r2
   836b0:	ba7fc41e 	bne	r23,r9,835c4 <__alt_data_end+0xfff835c4>
   836b4:	b0ffc31e 	bne	r22,r3,835c4 <__alt_data_end+0xfff835c4>
   836b8:	003fc306 	br	835c8 <__alt_data_end+0xfff835c8>
   836bc:	143ff604 	addi	r16,r2,-40
   836c0:	9c20983a 	sll	r16,r19,r16
   836c4:	0025883a 	mov	r18,zero
   836c8:	003ee206 	br	83254 <__alt_data_end+0xfff83254>
   836cc:	d9800315 	stw	r6,12(sp)
   836d0:	d9c00215 	stw	r7,8(sp)
   836d4:	0084db80 	call	84db8 <__clzsi2>
   836d8:	10800804 	addi	r2,r2,32
   836dc:	d9c00217 	ldw	r7,8(sp)
   836e0:	d9800317 	ldw	r6,12(sp)
   836e4:	003ed106 	br	8322c <__alt_data_end+0xfff8322c>
   836e8:	147ff604 	addi	r17,r2,-40
   836ec:	3462983a 	sll	r17,r6,r17
   836f0:	0011883a 	mov	r8,zero
   836f4:	003ef506 	br	832cc <__alt_data_end+0xfff832cc>
   836f8:	3009883a 	mov	r4,r6
   836fc:	d9800315 	stw	r6,12(sp)
   83700:	da400115 	stw	r9,4(sp)
   83704:	0084db80 	call	84db8 <__clzsi2>
   83708:	10800804 	addi	r2,r2,32
   8370c:	da400117 	ldw	r9,4(sp)
   83710:	d9800317 	ldw	r6,12(sp)
   83714:	003ee306 	br	832a4 <__alt_data_end+0xfff832a4>
   83718:	85a1883a 	add	r16,r16,r22
   8371c:	8585803a 	cmpltu	r2,r16,r22
   83720:	1705883a 	add	r2,r2,fp
   83724:	14a5883a 	add	r18,r2,r18
   83728:	88bfffc4 	addi	r2,r17,-1
   8372c:	e4800c2e 	bgeu	fp,r18,83760 <__divdf3+0x72c>
   83730:	90c03e36 	bltu	r18,r3,8382c <__divdf3+0x7f8>
   83734:	1c806926 	beq	r3,r18,838dc <__divdf3+0x8a8>
   83738:	90c7c83a 	sub	r3,r18,r3
   8373c:	1023883a 	mov	r17,r2
   83740:	003f5206 	br	8348c <__alt_data_end+0xfff8348c>
   83744:	923f0436 	bltu	r18,r8,83358 <__alt_data_end+0xfff83358>
   83748:	800897fa 	slli	r4,r16,31
   8374c:	9004d07a 	srli	r2,r18,1
   83750:	8006d07a 	srli	r3,r16,1
   83754:	902097fa 	slli	r16,r18,31
   83758:	20a4b03a 	or	r18,r4,r2
   8375c:	003f0106 	br	83364 <__alt_data_end+0xfff83364>
   83760:	e4bff51e 	bne	fp,r18,83738 <__alt_data_end+0xfff83738>
   83764:	85bff22e 	bgeu	r16,r22,83730 <__alt_data_end+0xfff83730>
   83768:	e0c7c83a 	sub	r3,fp,r3
   8376c:	1023883a 	mov	r17,r2
   83770:	003f4606 	br	8348c <__alt_data_end+0xfff8348c>
   83774:	100f883a 	mov	r7,r2
   83778:	003f2b06 	br	83428 <__alt_data_end+0xfff83428>
   8377c:	180d883a 	mov	r6,r3
   83780:	003f1306 	br	833d0 <__alt_data_end+0xfff833d0>
   83784:	813fe436 	bltu	r16,r4,83718 <__alt_data_end+0xfff83718>
   83788:	0007883a 	mov	r3,zero
   8378c:	003f3f06 	br	8348c <__alt_data_end+0xfff8348c>
   83790:	ba402c36 	bltu	r23,r9,83844 <__divdf3+0x810>
   83794:	4dc05426 	beq	r9,r23,838e8 <__divdf3+0x8b4>
   83798:	1011883a 	mov	r8,r2
   8379c:	003f8906 	br	835c4 <__alt_data_end+0xfff835c4>
   837a0:	023fffc4 	movi	r8,-1
   837a4:	003f8806 	br	835c8 <__alt_data_end+0xfff835c8>
   837a8:	1811883a 	mov	r8,r3
   837ac:	003f5406 	br	83500 <__alt_data_end+0xfff83500>
   837b0:	1025883a 	mov	r18,r2
   837b4:	003f6d06 	br	8356c <__alt_data_end+0xfff8356c>
   837b8:	b827883a 	mov	r19,r23
   837bc:	003f8206 	br	835c8 <__alt_data_end+0xfff835c8>
   837c0:	010007c4 	movi	r4,31
   837c4:	20c02616 	blt	r4,r3,83860 <__divdf3+0x82c>
   837c8:	00800804 	movi	r2,32
   837cc:	10c5c83a 	sub	r2,r2,r3
   837d0:	888a983a 	sll	r5,r17,r2
   837d4:	40c8d83a 	srl	r4,r8,r3
   837d8:	4084983a 	sll	r2,r8,r2
   837dc:	88e2d83a 	srl	r17,r17,r3
   837e0:	2906b03a 	or	r3,r5,r4
   837e4:	1004c03a 	cmpne	r2,r2,zero
   837e8:	1886b03a 	or	r3,r3,r2
   837ec:	188001cc 	andi	r2,r3,7
   837f0:	10000726 	beq	r2,zero,83810 <__divdf3+0x7dc>
   837f4:	188003cc 	andi	r2,r3,15
   837f8:	01000104 	movi	r4,4
   837fc:	11000426 	beq	r2,r4,83810 <__divdf3+0x7dc>
   83800:	1805883a 	mov	r2,r3
   83804:	10c00104 	addi	r3,r2,4
   83808:	1885803a 	cmpltu	r2,r3,r2
   8380c:	88a3883a 	add	r17,r17,r2
   83810:	8880202c 	andhi	r2,r17,128
   83814:	10002726 	beq	r2,zero,838b4 <__divdf3+0x880>
   83818:	98c0004c 	andi	r3,r19,1
   8381c:	00800044 	movi	r2,1
   83820:	000b883a 	mov	r5,zero
   83824:	0025883a 	mov	r18,zero
   83828:	003e6106 	br	831b0 <__alt_data_end+0xfff831b0>
   8382c:	85a1883a 	add	r16,r16,r22
   83830:	8585803a 	cmpltu	r2,r16,r22
   83834:	1705883a 	add	r2,r2,fp
   83838:	14a5883a 	add	r18,r2,r18
   8383c:	8c7fff84 	addi	r17,r17,-2
   83840:	003f1106 	br	83488 <__alt_data_end+0xfff83488>
   83844:	b589883a 	add	r4,r22,r22
   83848:	25ad803a 	cmpltu	r22,r4,r22
   8384c:	b739883a 	add	fp,r22,fp
   83850:	40bfff84 	addi	r2,r8,-2
   83854:	bf2f883a 	add	r23,r23,fp
   83858:	202d883a 	mov	r22,r4
   8385c:	003f9306 	br	836ac <__alt_data_end+0xfff836ac>
   83860:	013ff844 	movi	r4,-31
   83864:	2085c83a 	sub	r2,r4,r2
   83868:	8888d83a 	srl	r4,r17,r2
   8386c:	00800804 	movi	r2,32
   83870:	18802126 	beq	r3,r2,838f8 <__divdf3+0x8c4>
   83874:	00801004 	movi	r2,64
   83878:	10c5c83a 	sub	r2,r2,r3
   8387c:	8884983a 	sll	r2,r17,r2
   83880:	1204b03a 	or	r2,r2,r8
   83884:	1004c03a 	cmpne	r2,r2,zero
   83888:	2084b03a 	or	r2,r4,r2
   8388c:	144001cc 	andi	r17,r2,7
   83890:	88000d1e 	bne	r17,zero,838c8 <__divdf3+0x894>
   83894:	000b883a 	mov	r5,zero
   83898:	1024d0fa 	srli	r18,r2,3
   8389c:	98c0004c 	andi	r3,r19,1
   838a0:	0005883a 	mov	r2,zero
   838a4:	9464b03a 	or	r18,r18,r17
   838a8:	003e4106 	br	831b0 <__alt_data_end+0xfff831b0>
   838ac:	1007883a 	mov	r3,r2
   838b0:	0023883a 	mov	r17,zero
   838b4:	880a927a 	slli	r5,r17,9
   838b8:	1805883a 	mov	r2,r3
   838bc:	8822977a 	slli	r17,r17,29
   838c0:	280ad33a 	srli	r5,r5,12
   838c4:	003ff406 	br	83898 <__alt_data_end+0xfff83898>
   838c8:	10c003cc 	andi	r3,r2,15
   838cc:	01000104 	movi	r4,4
   838d0:	193ff626 	beq	r3,r4,838ac <__alt_data_end+0xfff838ac>
   838d4:	0023883a 	mov	r17,zero
   838d8:	003fca06 	br	83804 <__alt_data_end+0xfff83804>
   838dc:	813fd336 	bltu	r16,r4,8382c <__alt_data_end+0xfff8382c>
   838e0:	1023883a 	mov	r17,r2
   838e4:	003fa806 	br	83788 <__alt_data_end+0xfff83788>
   838e8:	b0ffd636 	bltu	r22,r3,83844 <__alt_data_end+0xfff83844>
   838ec:	1011883a 	mov	r8,r2
   838f0:	b0ff341e 	bne	r22,r3,835c4 <__alt_data_end+0xfff835c4>
   838f4:	003f3406 	br	835c8 <__alt_data_end+0xfff835c8>
   838f8:	0005883a 	mov	r2,zero
   838fc:	003fe006 	br	83880 <__alt_data_end+0xfff83880>
   83900:	00800434 	movhi	r2,16
   83904:	89400234 	orhi	r5,r17,8
   83908:	10bfffc4 	addi	r2,r2,-1
   8390c:	b807883a 	mov	r3,r23
   83910:	288a703a 	and	r5,r5,r2
   83914:	4025883a 	mov	r18,r8
   83918:	003e8206 	br	83324 <__alt_data_end+0xfff83324>

0008391c <__ledf2>:
   8391c:	2804d53a 	srli	r2,r5,20
   83920:	3810d53a 	srli	r8,r7,20
   83924:	00c00434 	movhi	r3,16
   83928:	18ffffc4 	addi	r3,r3,-1
   8392c:	1081ffcc 	andi	r2,r2,2047
   83930:	0241ffc4 	movi	r9,2047
   83934:	28d4703a 	and	r10,r5,r3
   83938:	4201ffcc 	andi	r8,r8,2047
   8393c:	38c6703a 	and	r3,r7,r3
   83940:	280ad7fa 	srli	r5,r5,31
   83944:	380ed7fa 	srli	r7,r7,31
   83948:	12401f26 	beq	r2,r9,839c8 <__ledf2+0xac>
   8394c:	0241ffc4 	movi	r9,2047
   83950:	42401426 	beq	r8,r9,839a4 <__ledf2+0x88>
   83954:	1000091e 	bne	r2,zero,8397c <__ledf2+0x60>
   83958:	2296b03a 	or	r11,r4,r10
   8395c:	5813003a 	cmpeq	r9,r11,zero
   83960:	29403fcc 	andi	r5,r5,255
   83964:	40000a1e 	bne	r8,zero,83990 <__ledf2+0x74>
   83968:	30d8b03a 	or	r12,r6,r3
   8396c:	6000081e 	bne	r12,zero,83990 <__ledf2+0x74>
   83970:	0005883a 	mov	r2,zero
   83974:	5800111e 	bne	r11,zero,839bc <__ledf2+0xa0>
   83978:	f800283a 	ret
   8397c:	29403fcc 	andi	r5,r5,255
   83980:	40000c1e 	bne	r8,zero,839b4 <__ledf2+0x98>
   83984:	30d2b03a 	or	r9,r6,r3
   83988:	48000c26 	beq	r9,zero,839bc <__ledf2+0xa0>
   8398c:	0013883a 	mov	r9,zero
   83990:	39c03fcc 	andi	r7,r7,255
   83994:	48000826 	beq	r9,zero,839b8 <__ledf2+0x9c>
   83998:	38001126 	beq	r7,zero,839e0 <__ledf2+0xc4>
   8399c:	00800044 	movi	r2,1
   839a0:	f800283a 	ret
   839a4:	30d2b03a 	or	r9,r6,r3
   839a8:	483fea26 	beq	r9,zero,83954 <__alt_data_end+0xfff83954>
   839ac:	00800084 	movi	r2,2
   839b0:	f800283a 	ret
   839b4:	39c03fcc 	andi	r7,r7,255
   839b8:	39400726 	beq	r7,r5,839d8 <__ledf2+0xbc>
   839bc:	2800081e 	bne	r5,zero,839e0 <__ledf2+0xc4>
   839c0:	00800044 	movi	r2,1
   839c4:	f800283a 	ret
   839c8:	2292b03a 	or	r9,r4,r10
   839cc:	483fdf26 	beq	r9,zero,8394c <__alt_data_end+0xfff8394c>
   839d0:	00800084 	movi	r2,2
   839d4:	f800283a 	ret
   839d8:	4080030e 	bge	r8,r2,839e8 <__ledf2+0xcc>
   839dc:	383fef26 	beq	r7,zero,8399c <__alt_data_end+0xfff8399c>
   839e0:	00bfffc4 	movi	r2,-1
   839e4:	f800283a 	ret
   839e8:	123feb16 	blt	r2,r8,83998 <__alt_data_end+0xfff83998>
   839ec:	1abff336 	bltu	r3,r10,839bc <__alt_data_end+0xfff839bc>
   839f0:	50c00326 	beq	r10,r3,83a00 <__ledf2+0xe4>
   839f4:	50c0042e 	bgeu	r10,r3,83a08 <__ledf2+0xec>
   839f8:	283fe81e 	bne	r5,zero,8399c <__alt_data_end+0xfff8399c>
   839fc:	003ff806 	br	839e0 <__alt_data_end+0xfff839e0>
   83a00:	313fee36 	bltu	r6,r4,839bc <__alt_data_end+0xfff839bc>
   83a04:	21bffc36 	bltu	r4,r6,839f8 <__alt_data_end+0xfff839f8>
   83a08:	0005883a 	mov	r2,zero
   83a0c:	f800283a 	ret

00083a10 <__muldf3>:
   83a10:	defff304 	addi	sp,sp,-52
   83a14:	2804d53a 	srli	r2,r5,20
   83a18:	dd800915 	stw	r22,36(sp)
   83a1c:	282cd7fa 	srli	r22,r5,31
   83a20:	dc000315 	stw	r16,12(sp)
   83a24:	04000434 	movhi	r16,16
   83a28:	dd400815 	stw	r21,32(sp)
   83a2c:	dc800515 	stw	r18,20(sp)
   83a30:	843fffc4 	addi	r16,r16,-1
   83a34:	dfc00c15 	stw	ra,48(sp)
   83a38:	df000b15 	stw	fp,44(sp)
   83a3c:	ddc00a15 	stw	r23,40(sp)
   83a40:	dd000715 	stw	r20,28(sp)
   83a44:	dcc00615 	stw	r19,24(sp)
   83a48:	dc400415 	stw	r17,16(sp)
   83a4c:	1481ffcc 	andi	r18,r2,2047
   83a50:	2c20703a 	and	r16,r5,r16
   83a54:	b02b883a 	mov	r21,r22
   83a58:	b2403fcc 	andi	r9,r22,255
   83a5c:	90006026 	beq	r18,zero,83be0 <__muldf3+0x1d0>
   83a60:	0081ffc4 	movi	r2,2047
   83a64:	2029883a 	mov	r20,r4
   83a68:	90803626 	beq	r18,r2,83b44 <__muldf3+0x134>
   83a6c:	80800434 	orhi	r2,r16,16
   83a70:	100490fa 	slli	r2,r2,3
   83a74:	2020d77a 	srli	r16,r4,29
   83a78:	202890fa 	slli	r20,r4,3
   83a7c:	94bf0044 	addi	r18,r18,-1023
   83a80:	80a0b03a 	or	r16,r16,r2
   83a84:	0027883a 	mov	r19,zero
   83a88:	0039883a 	mov	fp,zero
   83a8c:	3804d53a 	srli	r2,r7,20
   83a90:	382ed7fa 	srli	r23,r7,31
   83a94:	04400434 	movhi	r17,16
   83a98:	8c7fffc4 	addi	r17,r17,-1
   83a9c:	1081ffcc 	andi	r2,r2,2047
   83aa0:	3011883a 	mov	r8,r6
   83aa4:	3c62703a 	and	r17,r7,r17
   83aa8:	ba803fcc 	andi	r10,r23,255
   83aac:	10006d26 	beq	r2,zero,83c64 <__muldf3+0x254>
   83ab0:	00c1ffc4 	movi	r3,2047
   83ab4:	10c06526 	beq	r2,r3,83c4c <__muldf3+0x23c>
   83ab8:	88c00434 	orhi	r3,r17,16
   83abc:	180690fa 	slli	r3,r3,3
   83ac0:	3022d77a 	srli	r17,r6,29
   83ac4:	301090fa 	slli	r8,r6,3
   83ac8:	10bf0044 	addi	r2,r2,-1023
   83acc:	88e2b03a 	or	r17,r17,r3
   83ad0:	000b883a 	mov	r5,zero
   83ad4:	9085883a 	add	r2,r18,r2
   83ad8:	2cc8b03a 	or	r4,r5,r19
   83adc:	00c003c4 	movi	r3,15
   83ae0:	bdacf03a 	xor	r22,r23,r22
   83ae4:	12c00044 	addi	r11,r2,1
   83ae8:	19009936 	bltu	r3,r4,83d50 <__muldf3+0x340>
   83aec:	200890ba 	slli	r4,r4,2
   83af0:	00c00234 	movhi	r3,8
   83af4:	18cec104 	addi	r3,r3,15108
   83af8:	20c9883a 	add	r4,r4,r3
   83afc:	20c00017 	ldw	r3,0(r4)
   83b00:	1800683a 	jmp	r3
   83b04:	00083d50 	cmplti	zero,zero,8437
   83b08:	00083b64 	muli	zero,zero,8429
   83b0c:	00083b64 	muli	zero,zero,8429
   83b10:	00083b60 	cmpeqi	zero,zero,8429
   83b14:	00083d2c 	andhi	zero,zero,8436
   83b18:	00083d2c 	andhi	zero,zero,8436
   83b1c:	00083d14 	movui	zero,8436
   83b20:	00083b60 	cmpeqi	zero,zero,8429
   83b24:	00083d2c 	andhi	zero,zero,8436
   83b28:	00083d14 	movui	zero,8436
   83b2c:	00083d2c 	andhi	zero,zero,8436
   83b30:	00083b60 	cmpeqi	zero,zero,8429
   83b34:	00083d3c 	xorhi	zero,zero,8436
   83b38:	00083d3c 	xorhi	zero,zero,8436
   83b3c:	00083d3c 	xorhi	zero,zero,8436
   83b40:	00083f58 	cmpnei	zero,zero,8445
   83b44:	2404b03a 	or	r2,r4,r16
   83b48:	10006f1e 	bne	r2,zero,83d08 <__muldf3+0x2f8>
   83b4c:	04c00204 	movi	r19,8
   83b50:	0021883a 	mov	r16,zero
   83b54:	0029883a 	mov	r20,zero
   83b58:	07000084 	movi	fp,2
   83b5c:	003fcb06 	br	83a8c <__alt_data_end+0xfff83a8c>
   83b60:	502d883a 	mov	r22,r10
   83b64:	00800084 	movi	r2,2
   83b68:	28805726 	beq	r5,r2,83cc8 <__muldf3+0x2b8>
   83b6c:	008000c4 	movi	r2,3
   83b70:	28816626 	beq	r5,r2,8410c <__muldf3+0x6fc>
   83b74:	00800044 	movi	r2,1
   83b78:	2881411e 	bne	r5,r2,84080 <__muldf3+0x670>
   83b7c:	b02b883a 	mov	r21,r22
   83b80:	0005883a 	mov	r2,zero
   83b84:	000b883a 	mov	r5,zero
   83b88:	0029883a 	mov	r20,zero
   83b8c:	1004953a 	slli	r2,r2,20
   83b90:	a8c03fcc 	andi	r3,r21,255
   83b94:	04400434 	movhi	r17,16
   83b98:	8c7fffc4 	addi	r17,r17,-1
   83b9c:	180697fa 	slli	r3,r3,31
   83ba0:	2c4a703a 	and	r5,r5,r17
   83ba4:	288ab03a 	or	r5,r5,r2
   83ba8:	28c6b03a 	or	r3,r5,r3
   83bac:	a005883a 	mov	r2,r20
   83bb0:	dfc00c17 	ldw	ra,48(sp)
   83bb4:	df000b17 	ldw	fp,44(sp)
   83bb8:	ddc00a17 	ldw	r23,40(sp)
   83bbc:	dd800917 	ldw	r22,36(sp)
   83bc0:	dd400817 	ldw	r21,32(sp)
   83bc4:	dd000717 	ldw	r20,28(sp)
   83bc8:	dcc00617 	ldw	r19,24(sp)
   83bcc:	dc800517 	ldw	r18,20(sp)
   83bd0:	dc400417 	ldw	r17,16(sp)
   83bd4:	dc000317 	ldw	r16,12(sp)
   83bd8:	dec00d04 	addi	sp,sp,52
   83bdc:	f800283a 	ret
   83be0:	2404b03a 	or	r2,r4,r16
   83be4:	2027883a 	mov	r19,r4
   83be8:	10004226 	beq	r2,zero,83cf4 <__muldf3+0x2e4>
   83bec:	8000fc26 	beq	r16,zero,83fe0 <__muldf3+0x5d0>
   83bf0:	8009883a 	mov	r4,r16
   83bf4:	d9800215 	stw	r6,8(sp)
   83bf8:	d9c00015 	stw	r7,0(sp)
   83bfc:	da400115 	stw	r9,4(sp)
   83c00:	0084db80 	call	84db8 <__clzsi2>
   83c04:	d9800217 	ldw	r6,8(sp)
   83c08:	d9c00017 	ldw	r7,0(sp)
   83c0c:	da400117 	ldw	r9,4(sp)
   83c10:	113ffd44 	addi	r4,r2,-11
   83c14:	00c00704 	movi	r3,28
   83c18:	1900ed16 	blt	r3,r4,83fd0 <__muldf3+0x5c0>
   83c1c:	00c00744 	movi	r3,29
   83c20:	147ffe04 	addi	r17,r2,-8
   83c24:	1907c83a 	sub	r3,r3,r4
   83c28:	8460983a 	sll	r16,r16,r17
   83c2c:	98c6d83a 	srl	r3,r19,r3
   83c30:	9c68983a 	sll	r20,r19,r17
   83c34:	1c20b03a 	or	r16,r3,r16
   83c38:	1080fcc4 	addi	r2,r2,1011
   83c3c:	00a5c83a 	sub	r18,zero,r2
   83c40:	0027883a 	mov	r19,zero
   83c44:	0039883a 	mov	fp,zero
   83c48:	003f9006 	br	83a8c <__alt_data_end+0xfff83a8c>
   83c4c:	3446b03a 	or	r3,r6,r17
   83c50:	1800261e 	bne	r3,zero,83cec <__muldf3+0x2dc>
   83c54:	0023883a 	mov	r17,zero
   83c58:	0011883a 	mov	r8,zero
   83c5c:	01400084 	movi	r5,2
   83c60:	003f9c06 	br	83ad4 <__alt_data_end+0xfff83ad4>
   83c64:	3446b03a 	or	r3,r6,r17
   83c68:	18001c26 	beq	r3,zero,83cdc <__muldf3+0x2cc>
   83c6c:	8800ce26 	beq	r17,zero,83fa8 <__muldf3+0x598>
   83c70:	8809883a 	mov	r4,r17
   83c74:	d9800215 	stw	r6,8(sp)
   83c78:	da400115 	stw	r9,4(sp)
   83c7c:	da800015 	stw	r10,0(sp)
   83c80:	0084db80 	call	84db8 <__clzsi2>
   83c84:	d9800217 	ldw	r6,8(sp)
   83c88:	da400117 	ldw	r9,4(sp)
   83c8c:	da800017 	ldw	r10,0(sp)
   83c90:	113ffd44 	addi	r4,r2,-11
   83c94:	00c00704 	movi	r3,28
   83c98:	1900bf16 	blt	r3,r4,83f98 <__muldf3+0x588>
   83c9c:	00c00744 	movi	r3,29
   83ca0:	123ffe04 	addi	r8,r2,-8
   83ca4:	1907c83a 	sub	r3,r3,r4
   83ca8:	8a22983a 	sll	r17,r17,r8
   83cac:	30c6d83a 	srl	r3,r6,r3
   83cb0:	3210983a 	sll	r8,r6,r8
   83cb4:	1c62b03a 	or	r17,r3,r17
   83cb8:	1080fcc4 	addi	r2,r2,1011
   83cbc:	0085c83a 	sub	r2,zero,r2
   83cc0:	000b883a 	mov	r5,zero
   83cc4:	003f8306 	br	83ad4 <__alt_data_end+0xfff83ad4>
   83cc8:	b02b883a 	mov	r21,r22
   83ccc:	0081ffc4 	movi	r2,2047
   83cd0:	000b883a 	mov	r5,zero
   83cd4:	0029883a 	mov	r20,zero
   83cd8:	003fac06 	br	83b8c <__alt_data_end+0xfff83b8c>
   83cdc:	0023883a 	mov	r17,zero
   83ce0:	0011883a 	mov	r8,zero
   83ce4:	01400044 	movi	r5,1
   83ce8:	003f7a06 	br	83ad4 <__alt_data_end+0xfff83ad4>
   83cec:	014000c4 	movi	r5,3
   83cf0:	003f7806 	br	83ad4 <__alt_data_end+0xfff83ad4>
   83cf4:	04c00104 	movi	r19,4
   83cf8:	0021883a 	mov	r16,zero
   83cfc:	0029883a 	mov	r20,zero
   83d00:	07000044 	movi	fp,1
   83d04:	003f6106 	br	83a8c <__alt_data_end+0xfff83a8c>
   83d08:	04c00304 	movi	r19,12
   83d0c:	070000c4 	movi	fp,3
   83d10:	003f5e06 	br	83a8c <__alt_data_end+0xfff83a8c>
   83d14:	01400434 	movhi	r5,16
   83d18:	002b883a 	mov	r21,zero
   83d1c:	297fffc4 	addi	r5,r5,-1
   83d20:	053fffc4 	movi	r20,-1
   83d24:	0081ffc4 	movi	r2,2047
   83d28:	003f9806 	br	83b8c <__alt_data_end+0xfff83b8c>
   83d2c:	8023883a 	mov	r17,r16
   83d30:	a011883a 	mov	r8,r20
   83d34:	e00b883a 	mov	r5,fp
   83d38:	003f8a06 	br	83b64 <__alt_data_end+0xfff83b64>
   83d3c:	8023883a 	mov	r17,r16
   83d40:	a011883a 	mov	r8,r20
   83d44:	482d883a 	mov	r22,r9
   83d48:	e00b883a 	mov	r5,fp
   83d4c:	003f8506 	br	83b64 <__alt_data_end+0xfff83b64>
   83d50:	a00ad43a 	srli	r5,r20,16
   83d54:	401ad43a 	srli	r13,r8,16
   83d58:	a53fffcc 	andi	r20,r20,65535
   83d5c:	423fffcc 	andi	r8,r8,65535
   83d60:	4519383a 	mul	r12,r8,r20
   83d64:	4147383a 	mul	r3,r8,r5
   83d68:	6d09383a 	mul	r4,r13,r20
   83d6c:	600cd43a 	srli	r6,r12,16
   83d70:	2b5d383a 	mul	r14,r5,r13
   83d74:	20c9883a 	add	r4,r4,r3
   83d78:	310d883a 	add	r6,r6,r4
   83d7c:	30c0022e 	bgeu	r6,r3,83d88 <__muldf3+0x378>
   83d80:	00c00074 	movhi	r3,1
   83d84:	70dd883a 	add	r14,r14,r3
   83d88:	8826d43a 	srli	r19,r17,16
   83d8c:	8bffffcc 	andi	r15,r17,65535
   83d90:	7d23383a 	mul	r17,r15,r20
   83d94:	7949383a 	mul	r4,r15,r5
   83d98:	9d29383a 	mul	r20,r19,r20
   83d9c:	8814d43a 	srli	r10,r17,16
   83da0:	3012943a 	slli	r9,r6,16
   83da4:	a129883a 	add	r20,r20,r4
   83da8:	633fffcc 	andi	r12,r12,65535
   83dac:	5515883a 	add	r10,r10,r20
   83db0:	3006d43a 	srli	r3,r6,16
   83db4:	4b13883a 	add	r9,r9,r12
   83db8:	2ccb383a 	mul	r5,r5,r19
   83dbc:	5100022e 	bgeu	r10,r4,83dc8 <__muldf3+0x3b8>
   83dc0:	01000074 	movhi	r4,1
   83dc4:	290b883a 	add	r5,r5,r4
   83dc8:	802ad43a 	srli	r21,r16,16
   83dcc:	843fffcc 	andi	r16,r16,65535
   83dd0:	440d383a 	mul	r6,r8,r16
   83dd4:	4565383a 	mul	r18,r8,r21
   83dd8:	8349383a 	mul	r4,r16,r13
   83ddc:	500e943a 	slli	r7,r10,16
   83de0:	3010d43a 	srli	r8,r6,16
   83de4:	5028d43a 	srli	r20,r10,16
   83de8:	2489883a 	add	r4,r4,r18
   83dec:	8abfffcc 	andi	r10,r17,65535
   83df0:	3a95883a 	add	r10,r7,r10
   83df4:	4119883a 	add	r12,r8,r4
   83df8:	a169883a 	add	r20,r20,r5
   83dfc:	1a87883a 	add	r3,r3,r10
   83e00:	6d5b383a 	mul	r13,r13,r21
   83e04:	6480022e 	bgeu	r12,r18,83e10 <__muldf3+0x400>
   83e08:	01000074 	movhi	r4,1
   83e0c:	691b883a 	add	r13,r13,r4
   83e10:	7c25383a 	mul	r18,r15,r16
   83e14:	7d4b383a 	mul	r5,r15,r21
   83e18:	84cf383a 	mul	r7,r16,r19
   83e1c:	901ed43a 	srli	r15,r18,16
   83e20:	6008d43a 	srli	r4,r12,16
   83e24:	6010943a 	slli	r8,r12,16
   83e28:	394f883a 	add	r7,r7,r5
   83e2c:	333fffcc 	andi	r12,r6,65535
   83e30:	79df883a 	add	r15,r15,r7
   83e34:	235b883a 	add	r13,r4,r13
   83e38:	9d63383a 	mul	r17,r19,r21
   83e3c:	4309883a 	add	r4,r8,r12
   83e40:	7940022e 	bgeu	r15,r5,83e4c <__muldf3+0x43c>
   83e44:	01400074 	movhi	r5,1
   83e48:	8963883a 	add	r17,r17,r5
   83e4c:	780a943a 	slli	r5,r15,16
   83e50:	91bfffcc 	andi	r6,r18,65535
   83e54:	70c7883a 	add	r3,r14,r3
   83e58:	298d883a 	add	r6,r5,r6
   83e5c:	1a8f803a 	cmpltu	r7,r3,r10
   83e60:	350b883a 	add	r5,r6,r20
   83e64:	20c7883a 	add	r3,r4,r3
   83e68:	3955883a 	add	r10,r7,r5
   83e6c:	1909803a 	cmpltu	r4,r3,r4
   83e70:	6a91883a 	add	r8,r13,r10
   83e74:	780cd43a 	srli	r6,r15,16
   83e78:	2219883a 	add	r12,r4,r8
   83e7c:	2d0b803a 	cmpltu	r5,r5,r20
   83e80:	51cf803a 	cmpltu	r7,r10,r7
   83e84:	29ceb03a 	or	r7,r5,r7
   83e88:	4351803a 	cmpltu	r8,r8,r13
   83e8c:	610b803a 	cmpltu	r5,r12,r4
   83e90:	4148b03a 	or	r4,r8,r5
   83e94:	398f883a 	add	r7,r7,r6
   83e98:	3909883a 	add	r4,r7,r4
   83e9c:	1810927a 	slli	r8,r3,9
   83ea0:	2449883a 	add	r4,r4,r17
   83ea4:	2008927a 	slli	r4,r4,9
   83ea8:	6022d5fa 	srli	r17,r12,23
   83eac:	1806d5fa 	srli	r3,r3,23
   83eb0:	4252b03a 	or	r9,r8,r9
   83eb4:	600a927a 	slli	r5,r12,9
   83eb8:	4810c03a 	cmpne	r8,r9,zero
   83ebc:	2462b03a 	or	r17,r4,r17
   83ec0:	40c6b03a 	or	r3,r8,r3
   83ec4:	8900402c 	andhi	r4,r17,256
   83ec8:	1950b03a 	or	r8,r3,r5
   83ecc:	20000726 	beq	r4,zero,83eec <__muldf3+0x4dc>
   83ed0:	4006d07a 	srli	r3,r8,1
   83ed4:	880497fa 	slli	r2,r17,31
   83ed8:	4200004c 	andi	r8,r8,1
   83edc:	8822d07a 	srli	r17,r17,1
   83ee0:	1a10b03a 	or	r8,r3,r8
   83ee4:	1210b03a 	or	r8,r2,r8
   83ee8:	5805883a 	mov	r2,r11
   83eec:	1140ffc4 	addi	r5,r2,1023
   83ef0:	0140440e 	bge	zero,r5,84004 <__muldf3+0x5f4>
   83ef4:	40c001cc 	andi	r3,r8,7
   83ef8:	18000726 	beq	r3,zero,83f18 <__muldf3+0x508>
   83efc:	40c003cc 	andi	r3,r8,15
   83f00:	01000104 	movi	r4,4
   83f04:	19000426 	beq	r3,r4,83f18 <__muldf3+0x508>
   83f08:	4107883a 	add	r3,r8,r4
   83f0c:	1a11803a 	cmpltu	r8,r3,r8
   83f10:	8a23883a 	add	r17,r17,r8
   83f14:	1811883a 	mov	r8,r3
   83f18:	88c0402c 	andhi	r3,r17,256
   83f1c:	18000426 	beq	r3,zero,83f30 <__muldf3+0x520>
   83f20:	11410004 	addi	r5,r2,1024
   83f24:	00bfc034 	movhi	r2,65280
   83f28:	10bfffc4 	addi	r2,r2,-1
   83f2c:	88a2703a 	and	r17,r17,r2
   83f30:	0081ff84 	movi	r2,2046
   83f34:	117f6416 	blt	r2,r5,83cc8 <__alt_data_end+0xfff83cc8>
   83f38:	8828977a 	slli	r20,r17,29
   83f3c:	4010d0fa 	srli	r8,r8,3
   83f40:	8822927a 	slli	r17,r17,9
   83f44:	2881ffcc 	andi	r2,r5,2047
   83f48:	a228b03a 	or	r20,r20,r8
   83f4c:	880ad33a 	srli	r5,r17,12
   83f50:	b02b883a 	mov	r21,r22
   83f54:	003f0d06 	br	83b8c <__alt_data_end+0xfff83b8c>
   83f58:	8080022c 	andhi	r2,r16,8
   83f5c:	10000926 	beq	r2,zero,83f84 <__muldf3+0x574>
   83f60:	8880022c 	andhi	r2,r17,8
   83f64:	1000071e 	bne	r2,zero,83f84 <__muldf3+0x574>
   83f68:	00800434 	movhi	r2,16
   83f6c:	89400234 	orhi	r5,r17,8
   83f70:	10bfffc4 	addi	r2,r2,-1
   83f74:	b82b883a 	mov	r21,r23
   83f78:	288a703a 	and	r5,r5,r2
   83f7c:	4029883a 	mov	r20,r8
   83f80:	003f6806 	br	83d24 <__alt_data_end+0xfff83d24>
   83f84:	00800434 	movhi	r2,16
   83f88:	81400234 	orhi	r5,r16,8
   83f8c:	10bfffc4 	addi	r2,r2,-1
   83f90:	288a703a 	and	r5,r5,r2
   83f94:	003f6306 	br	83d24 <__alt_data_end+0xfff83d24>
   83f98:	147ff604 	addi	r17,r2,-40
   83f9c:	3462983a 	sll	r17,r6,r17
   83fa0:	0011883a 	mov	r8,zero
   83fa4:	003f4406 	br	83cb8 <__alt_data_end+0xfff83cb8>
   83fa8:	3009883a 	mov	r4,r6
   83fac:	d9800215 	stw	r6,8(sp)
   83fb0:	da400115 	stw	r9,4(sp)
   83fb4:	da800015 	stw	r10,0(sp)
   83fb8:	0084db80 	call	84db8 <__clzsi2>
   83fbc:	10800804 	addi	r2,r2,32
   83fc0:	da800017 	ldw	r10,0(sp)
   83fc4:	da400117 	ldw	r9,4(sp)
   83fc8:	d9800217 	ldw	r6,8(sp)
   83fcc:	003f3006 	br	83c90 <__alt_data_end+0xfff83c90>
   83fd0:	143ff604 	addi	r16,r2,-40
   83fd4:	9c20983a 	sll	r16,r19,r16
   83fd8:	0029883a 	mov	r20,zero
   83fdc:	003f1606 	br	83c38 <__alt_data_end+0xfff83c38>
   83fe0:	d9800215 	stw	r6,8(sp)
   83fe4:	d9c00015 	stw	r7,0(sp)
   83fe8:	da400115 	stw	r9,4(sp)
   83fec:	0084db80 	call	84db8 <__clzsi2>
   83ff0:	10800804 	addi	r2,r2,32
   83ff4:	da400117 	ldw	r9,4(sp)
   83ff8:	d9c00017 	ldw	r7,0(sp)
   83ffc:	d9800217 	ldw	r6,8(sp)
   84000:	003f0306 	br	83c10 <__alt_data_end+0xfff83c10>
   84004:	00c00044 	movi	r3,1
   84008:	1947c83a 	sub	r3,r3,r5
   8400c:	00800e04 	movi	r2,56
   84010:	10feda16 	blt	r2,r3,83b7c <__alt_data_end+0xfff83b7c>
   84014:	008007c4 	movi	r2,31
   84018:	10c01b16 	blt	r2,r3,84088 <__muldf3+0x678>
   8401c:	00800804 	movi	r2,32
   84020:	10c5c83a 	sub	r2,r2,r3
   84024:	888a983a 	sll	r5,r17,r2
   84028:	40c8d83a 	srl	r4,r8,r3
   8402c:	4084983a 	sll	r2,r8,r2
   84030:	88e2d83a 	srl	r17,r17,r3
   84034:	2906b03a 	or	r3,r5,r4
   84038:	1004c03a 	cmpne	r2,r2,zero
   8403c:	1886b03a 	or	r3,r3,r2
   84040:	188001cc 	andi	r2,r3,7
   84044:	10000726 	beq	r2,zero,84064 <__muldf3+0x654>
   84048:	188003cc 	andi	r2,r3,15
   8404c:	01000104 	movi	r4,4
   84050:	11000426 	beq	r2,r4,84064 <__muldf3+0x654>
   84054:	1805883a 	mov	r2,r3
   84058:	10c00104 	addi	r3,r2,4
   8405c:	1885803a 	cmpltu	r2,r3,r2
   84060:	88a3883a 	add	r17,r17,r2
   84064:	8880202c 	andhi	r2,r17,128
   84068:	10001c26 	beq	r2,zero,840dc <__muldf3+0x6cc>
   8406c:	b02b883a 	mov	r21,r22
   84070:	00800044 	movi	r2,1
   84074:	000b883a 	mov	r5,zero
   84078:	0029883a 	mov	r20,zero
   8407c:	003ec306 	br	83b8c <__alt_data_end+0xfff83b8c>
   84080:	5805883a 	mov	r2,r11
   84084:	003f9906 	br	83eec <__alt_data_end+0xfff83eec>
   84088:	00bff844 	movi	r2,-31
   8408c:	1145c83a 	sub	r2,r2,r5
   84090:	8888d83a 	srl	r4,r17,r2
   84094:	00800804 	movi	r2,32
   84098:	18801a26 	beq	r3,r2,84104 <__muldf3+0x6f4>
   8409c:	00801004 	movi	r2,64
   840a0:	10c5c83a 	sub	r2,r2,r3
   840a4:	8884983a 	sll	r2,r17,r2
   840a8:	1204b03a 	or	r2,r2,r8
   840ac:	1004c03a 	cmpne	r2,r2,zero
   840b0:	2084b03a 	or	r2,r4,r2
   840b4:	144001cc 	andi	r17,r2,7
   840b8:	88000d1e 	bne	r17,zero,840f0 <__muldf3+0x6e0>
   840bc:	000b883a 	mov	r5,zero
   840c0:	1028d0fa 	srli	r20,r2,3
   840c4:	b02b883a 	mov	r21,r22
   840c8:	0005883a 	mov	r2,zero
   840cc:	a468b03a 	or	r20,r20,r17
   840d0:	003eae06 	br	83b8c <__alt_data_end+0xfff83b8c>
   840d4:	1007883a 	mov	r3,r2
   840d8:	0023883a 	mov	r17,zero
   840dc:	880a927a 	slli	r5,r17,9
   840e0:	1805883a 	mov	r2,r3
   840e4:	8822977a 	slli	r17,r17,29
   840e8:	280ad33a 	srli	r5,r5,12
   840ec:	003ff406 	br	840c0 <__alt_data_end+0xfff840c0>
   840f0:	10c003cc 	andi	r3,r2,15
   840f4:	01000104 	movi	r4,4
   840f8:	193ff626 	beq	r3,r4,840d4 <__alt_data_end+0xfff840d4>
   840fc:	0023883a 	mov	r17,zero
   84100:	003fd506 	br	84058 <__alt_data_end+0xfff84058>
   84104:	0005883a 	mov	r2,zero
   84108:	003fe706 	br	840a8 <__alt_data_end+0xfff840a8>
   8410c:	00800434 	movhi	r2,16
   84110:	89400234 	orhi	r5,r17,8
   84114:	10bfffc4 	addi	r2,r2,-1
   84118:	b02b883a 	mov	r21,r22
   8411c:	288a703a 	and	r5,r5,r2
   84120:	4029883a 	mov	r20,r8
   84124:	003eff06 	br	83d24 <__alt_data_end+0xfff83d24>

00084128 <__subdf3>:
   84128:	02000434 	movhi	r8,16
   8412c:	423fffc4 	addi	r8,r8,-1
   84130:	defffb04 	addi	sp,sp,-20
   84134:	2a14703a 	and	r10,r5,r8
   84138:	3812d53a 	srli	r9,r7,20
   8413c:	3a10703a 	and	r8,r7,r8
   84140:	2006d77a 	srli	r3,r4,29
   84144:	3004d77a 	srli	r2,r6,29
   84148:	dc000015 	stw	r16,0(sp)
   8414c:	501490fa 	slli	r10,r10,3
   84150:	2820d53a 	srli	r16,r5,20
   84154:	401090fa 	slli	r8,r8,3
   84158:	dc800215 	stw	r18,8(sp)
   8415c:	dc400115 	stw	r17,4(sp)
   84160:	dfc00415 	stw	ra,16(sp)
   84164:	202290fa 	slli	r17,r4,3
   84168:	dcc00315 	stw	r19,12(sp)
   8416c:	4a41ffcc 	andi	r9,r9,2047
   84170:	0101ffc4 	movi	r4,2047
   84174:	2824d7fa 	srli	r18,r5,31
   84178:	8401ffcc 	andi	r16,r16,2047
   8417c:	50c6b03a 	or	r3,r10,r3
   84180:	380ed7fa 	srli	r7,r7,31
   84184:	408ab03a 	or	r5,r8,r2
   84188:	300c90fa 	slli	r6,r6,3
   8418c:	49009626 	beq	r9,r4,843e8 <__subdf3+0x2c0>
   84190:	39c0005c 	xori	r7,r7,1
   84194:	8245c83a 	sub	r2,r16,r9
   84198:	3c807426 	beq	r7,r18,8436c <__subdf3+0x244>
   8419c:	0080af0e 	bge	zero,r2,8445c <__subdf3+0x334>
   841a0:	48002a1e 	bne	r9,zero,8424c <__subdf3+0x124>
   841a4:	2988b03a 	or	r4,r5,r6
   841a8:	20009a1e 	bne	r4,zero,84414 <__subdf3+0x2ec>
   841ac:	888001cc 	andi	r2,r17,7
   841b0:	10000726 	beq	r2,zero,841d0 <__subdf3+0xa8>
   841b4:	888003cc 	andi	r2,r17,15
   841b8:	01000104 	movi	r4,4
   841bc:	11000426 	beq	r2,r4,841d0 <__subdf3+0xa8>
   841c0:	890b883a 	add	r5,r17,r4
   841c4:	2c63803a 	cmpltu	r17,r5,r17
   841c8:	1c47883a 	add	r3,r3,r17
   841cc:	2823883a 	mov	r17,r5
   841d0:	1880202c 	andhi	r2,r3,128
   841d4:	10005926 	beq	r2,zero,8433c <__subdf3+0x214>
   841d8:	84000044 	addi	r16,r16,1
   841dc:	0081ffc4 	movi	r2,2047
   841e0:	8080be26 	beq	r16,r2,844dc <__subdf3+0x3b4>
   841e4:	017fe034 	movhi	r5,65408
   841e8:	297fffc4 	addi	r5,r5,-1
   841ec:	1946703a 	and	r3,r3,r5
   841f0:	1804977a 	slli	r2,r3,29
   841f4:	1806927a 	slli	r3,r3,9
   841f8:	8822d0fa 	srli	r17,r17,3
   841fc:	8401ffcc 	andi	r16,r16,2047
   84200:	180ad33a 	srli	r5,r3,12
   84204:	9100004c 	andi	r4,r18,1
   84208:	1444b03a 	or	r2,r2,r17
   8420c:	80c1ffcc 	andi	r3,r16,2047
   84210:	1820953a 	slli	r16,r3,20
   84214:	20c03fcc 	andi	r3,r4,255
   84218:	180897fa 	slli	r4,r3,31
   8421c:	00c00434 	movhi	r3,16
   84220:	18ffffc4 	addi	r3,r3,-1
   84224:	28c6703a 	and	r3,r5,r3
   84228:	1c06b03a 	or	r3,r3,r16
   8422c:	1906b03a 	or	r3,r3,r4
   84230:	dfc00417 	ldw	ra,16(sp)
   84234:	dcc00317 	ldw	r19,12(sp)
   84238:	dc800217 	ldw	r18,8(sp)
   8423c:	dc400117 	ldw	r17,4(sp)
   84240:	dc000017 	ldw	r16,0(sp)
   84244:	dec00504 	addi	sp,sp,20
   84248:	f800283a 	ret
   8424c:	0101ffc4 	movi	r4,2047
   84250:	813fd626 	beq	r16,r4,841ac <__alt_data_end+0xfff841ac>
   84254:	29402034 	orhi	r5,r5,128
   84258:	01000e04 	movi	r4,56
   8425c:	2080a316 	blt	r4,r2,844ec <__subdf3+0x3c4>
   84260:	010007c4 	movi	r4,31
   84264:	2080c616 	blt	r4,r2,84580 <__subdf3+0x458>
   84268:	01000804 	movi	r4,32
   8426c:	2089c83a 	sub	r4,r4,r2
   84270:	2910983a 	sll	r8,r5,r4
   84274:	308ed83a 	srl	r7,r6,r2
   84278:	3108983a 	sll	r4,r6,r4
   8427c:	2884d83a 	srl	r2,r5,r2
   84280:	41ccb03a 	or	r6,r8,r7
   84284:	2008c03a 	cmpne	r4,r4,zero
   84288:	310cb03a 	or	r6,r6,r4
   8428c:	898dc83a 	sub	r6,r17,r6
   84290:	89a3803a 	cmpltu	r17,r17,r6
   84294:	1887c83a 	sub	r3,r3,r2
   84298:	1c47c83a 	sub	r3,r3,r17
   8429c:	3023883a 	mov	r17,r6
   842a0:	1880202c 	andhi	r2,r3,128
   842a4:	10002326 	beq	r2,zero,84334 <__subdf3+0x20c>
   842a8:	04c02034 	movhi	r19,128
   842ac:	9cffffc4 	addi	r19,r19,-1
   842b0:	1ce6703a 	and	r19,r3,r19
   842b4:	98007a26 	beq	r19,zero,844a0 <__subdf3+0x378>
   842b8:	9809883a 	mov	r4,r19
   842bc:	0084db80 	call	84db8 <__clzsi2>
   842c0:	113ffe04 	addi	r4,r2,-8
   842c4:	00c007c4 	movi	r3,31
   842c8:	19007b16 	blt	r3,r4,844b8 <__subdf3+0x390>
   842cc:	00800804 	movi	r2,32
   842d0:	1105c83a 	sub	r2,r2,r4
   842d4:	8884d83a 	srl	r2,r17,r2
   842d8:	9906983a 	sll	r3,r19,r4
   842dc:	8922983a 	sll	r17,r17,r4
   842e0:	10c4b03a 	or	r2,r2,r3
   842e4:	24007816 	blt	r4,r16,844c8 <__subdf3+0x3a0>
   842e8:	2421c83a 	sub	r16,r4,r16
   842ec:	80c00044 	addi	r3,r16,1
   842f0:	010007c4 	movi	r4,31
   842f4:	20c09516 	blt	r4,r3,8454c <__subdf3+0x424>
   842f8:	01400804 	movi	r5,32
   842fc:	28cbc83a 	sub	r5,r5,r3
   84300:	88c8d83a 	srl	r4,r17,r3
   84304:	8962983a 	sll	r17,r17,r5
   84308:	114a983a 	sll	r5,r2,r5
   8430c:	10c6d83a 	srl	r3,r2,r3
   84310:	8804c03a 	cmpne	r2,r17,zero
   84314:	290ab03a 	or	r5,r5,r4
   84318:	28a2b03a 	or	r17,r5,r2
   8431c:	0021883a 	mov	r16,zero
   84320:	003fa206 	br	841ac <__alt_data_end+0xfff841ac>
   84324:	2090b03a 	or	r8,r4,r2
   84328:	40018e26 	beq	r8,zero,84964 <__subdf3+0x83c>
   8432c:	1007883a 	mov	r3,r2
   84330:	2023883a 	mov	r17,r4
   84334:	888001cc 	andi	r2,r17,7
   84338:	103f9e1e 	bne	r2,zero,841b4 <__alt_data_end+0xfff841b4>
   8433c:	1804977a 	slli	r2,r3,29
   84340:	8822d0fa 	srli	r17,r17,3
   84344:	1810d0fa 	srli	r8,r3,3
   84348:	9100004c 	andi	r4,r18,1
   8434c:	1444b03a 	or	r2,r2,r17
   84350:	00c1ffc4 	movi	r3,2047
   84354:	80c02826 	beq	r16,r3,843f8 <__subdf3+0x2d0>
   84358:	01400434 	movhi	r5,16
   8435c:	297fffc4 	addi	r5,r5,-1
   84360:	80e0703a 	and	r16,r16,r3
   84364:	414a703a 	and	r5,r8,r5
   84368:	003fa806 	br	8420c <__alt_data_end+0xfff8420c>
   8436c:	0080630e 	bge	zero,r2,844fc <__subdf3+0x3d4>
   84370:	48003026 	beq	r9,zero,84434 <__subdf3+0x30c>
   84374:	0101ffc4 	movi	r4,2047
   84378:	813f8c26 	beq	r16,r4,841ac <__alt_data_end+0xfff841ac>
   8437c:	29402034 	orhi	r5,r5,128
   84380:	01000e04 	movi	r4,56
   84384:	2080a90e 	bge	r4,r2,8462c <__subdf3+0x504>
   84388:	298cb03a 	or	r6,r5,r6
   8438c:	3012c03a 	cmpne	r9,r6,zero
   84390:	0005883a 	mov	r2,zero
   84394:	4c53883a 	add	r9,r9,r17
   84398:	4c63803a 	cmpltu	r17,r9,r17
   8439c:	10c7883a 	add	r3,r2,r3
   843a0:	88c7883a 	add	r3,r17,r3
   843a4:	4823883a 	mov	r17,r9
   843a8:	1880202c 	andhi	r2,r3,128
   843ac:	1000d026 	beq	r2,zero,846f0 <__subdf3+0x5c8>
   843b0:	84000044 	addi	r16,r16,1
   843b4:	0081ffc4 	movi	r2,2047
   843b8:	8080fe26 	beq	r16,r2,847b4 <__subdf3+0x68c>
   843bc:	00bfe034 	movhi	r2,65408
   843c0:	10bfffc4 	addi	r2,r2,-1
   843c4:	1886703a 	and	r3,r3,r2
   843c8:	880ad07a 	srli	r5,r17,1
   843cc:	180497fa 	slli	r2,r3,31
   843d0:	8900004c 	andi	r4,r17,1
   843d4:	2922b03a 	or	r17,r5,r4
   843d8:	1806d07a 	srli	r3,r3,1
   843dc:	1462b03a 	or	r17,r2,r17
   843e0:	3825883a 	mov	r18,r7
   843e4:	003f7106 	br	841ac <__alt_data_end+0xfff841ac>
   843e8:	2984b03a 	or	r2,r5,r6
   843ec:	103f6826 	beq	r2,zero,84190 <__alt_data_end+0xfff84190>
   843f0:	39c03fcc 	andi	r7,r7,255
   843f4:	003f6706 	br	84194 <__alt_data_end+0xfff84194>
   843f8:	4086b03a 	or	r3,r8,r2
   843fc:	18015226 	beq	r3,zero,84948 <__subdf3+0x820>
   84400:	00c00434 	movhi	r3,16
   84404:	41400234 	orhi	r5,r8,8
   84408:	18ffffc4 	addi	r3,r3,-1
   8440c:	28ca703a 	and	r5,r5,r3
   84410:	003f7e06 	br	8420c <__alt_data_end+0xfff8420c>
   84414:	10bfffc4 	addi	r2,r2,-1
   84418:	1000491e 	bne	r2,zero,84540 <__subdf3+0x418>
   8441c:	898fc83a 	sub	r7,r17,r6
   84420:	89e3803a 	cmpltu	r17,r17,r7
   84424:	1947c83a 	sub	r3,r3,r5
   84428:	1c47c83a 	sub	r3,r3,r17
   8442c:	3823883a 	mov	r17,r7
   84430:	003f9b06 	br	842a0 <__alt_data_end+0xfff842a0>
   84434:	2988b03a 	or	r4,r5,r6
   84438:	203f5c26 	beq	r4,zero,841ac <__alt_data_end+0xfff841ac>
   8443c:	10bfffc4 	addi	r2,r2,-1
   84440:	1000931e 	bne	r2,zero,84690 <__subdf3+0x568>
   84444:	898d883a 	add	r6,r17,r6
   84448:	3463803a 	cmpltu	r17,r6,r17
   8444c:	1947883a 	add	r3,r3,r5
   84450:	88c7883a 	add	r3,r17,r3
   84454:	3023883a 	mov	r17,r6
   84458:	003fd306 	br	843a8 <__alt_data_end+0xfff843a8>
   8445c:	1000541e 	bne	r2,zero,845b0 <__subdf3+0x488>
   84460:	80800044 	addi	r2,r16,1
   84464:	1081ffcc 	andi	r2,r2,2047
   84468:	01000044 	movi	r4,1
   8446c:	2080a20e 	bge	r4,r2,846f8 <__subdf3+0x5d0>
   84470:	8989c83a 	sub	r4,r17,r6
   84474:	8905803a 	cmpltu	r2,r17,r4
   84478:	1967c83a 	sub	r19,r3,r5
   8447c:	98a7c83a 	sub	r19,r19,r2
   84480:	9880202c 	andhi	r2,r19,128
   84484:	10006326 	beq	r2,zero,84614 <__subdf3+0x4ec>
   84488:	3463c83a 	sub	r17,r6,r17
   8448c:	28c7c83a 	sub	r3,r5,r3
   84490:	344d803a 	cmpltu	r6,r6,r17
   84494:	19a7c83a 	sub	r19,r3,r6
   84498:	3825883a 	mov	r18,r7
   8449c:	983f861e 	bne	r19,zero,842b8 <__alt_data_end+0xfff842b8>
   844a0:	8809883a 	mov	r4,r17
   844a4:	0084db80 	call	84db8 <__clzsi2>
   844a8:	10800804 	addi	r2,r2,32
   844ac:	113ffe04 	addi	r4,r2,-8
   844b0:	00c007c4 	movi	r3,31
   844b4:	193f850e 	bge	r3,r4,842cc <__alt_data_end+0xfff842cc>
   844b8:	10bff604 	addi	r2,r2,-40
   844bc:	8884983a 	sll	r2,r17,r2
   844c0:	0023883a 	mov	r17,zero
   844c4:	243f880e 	bge	r4,r16,842e8 <__alt_data_end+0xfff842e8>
   844c8:	00ffe034 	movhi	r3,65408
   844cc:	18ffffc4 	addi	r3,r3,-1
   844d0:	8121c83a 	sub	r16,r16,r4
   844d4:	10c6703a 	and	r3,r2,r3
   844d8:	003f3406 	br	841ac <__alt_data_end+0xfff841ac>
   844dc:	9100004c 	andi	r4,r18,1
   844e0:	000b883a 	mov	r5,zero
   844e4:	0005883a 	mov	r2,zero
   844e8:	003f4806 	br	8420c <__alt_data_end+0xfff8420c>
   844ec:	298cb03a 	or	r6,r5,r6
   844f0:	300cc03a 	cmpne	r6,r6,zero
   844f4:	0005883a 	mov	r2,zero
   844f8:	003f6406 	br	8428c <__alt_data_end+0xfff8428c>
   844fc:	10009a1e 	bne	r2,zero,84768 <__subdf3+0x640>
   84500:	82400044 	addi	r9,r16,1
   84504:	4881ffcc 	andi	r2,r9,2047
   84508:	02800044 	movi	r10,1
   8450c:	5080670e 	bge	r10,r2,846ac <__subdf3+0x584>
   84510:	0081ffc4 	movi	r2,2047
   84514:	4880af26 	beq	r9,r2,847d4 <__subdf3+0x6ac>
   84518:	898d883a 	add	r6,r17,r6
   8451c:	1945883a 	add	r2,r3,r5
   84520:	3447803a 	cmpltu	r3,r6,r17
   84524:	1887883a 	add	r3,r3,r2
   84528:	182297fa 	slli	r17,r3,31
   8452c:	300cd07a 	srli	r6,r6,1
   84530:	1806d07a 	srli	r3,r3,1
   84534:	4821883a 	mov	r16,r9
   84538:	89a2b03a 	or	r17,r17,r6
   8453c:	003f1b06 	br	841ac <__alt_data_end+0xfff841ac>
   84540:	0101ffc4 	movi	r4,2047
   84544:	813f441e 	bne	r16,r4,84258 <__alt_data_end+0xfff84258>
   84548:	003f1806 	br	841ac <__alt_data_end+0xfff841ac>
   8454c:	843ff844 	addi	r16,r16,-31
   84550:	01400804 	movi	r5,32
   84554:	1408d83a 	srl	r4,r2,r16
   84558:	19405026 	beq	r3,r5,8469c <__subdf3+0x574>
   8455c:	01401004 	movi	r5,64
   84560:	28c7c83a 	sub	r3,r5,r3
   84564:	10c4983a 	sll	r2,r2,r3
   84568:	88a2b03a 	or	r17,r17,r2
   8456c:	8822c03a 	cmpne	r17,r17,zero
   84570:	2462b03a 	or	r17,r4,r17
   84574:	0007883a 	mov	r3,zero
   84578:	0021883a 	mov	r16,zero
   8457c:	003f6d06 	br	84334 <__alt_data_end+0xfff84334>
   84580:	11fff804 	addi	r7,r2,-32
   84584:	01000804 	movi	r4,32
   84588:	29ced83a 	srl	r7,r5,r7
   8458c:	11004526 	beq	r2,r4,846a4 <__subdf3+0x57c>
   84590:	01001004 	movi	r4,64
   84594:	2089c83a 	sub	r4,r4,r2
   84598:	2904983a 	sll	r2,r5,r4
   8459c:	118cb03a 	or	r6,r2,r6
   845a0:	300cc03a 	cmpne	r6,r6,zero
   845a4:	398cb03a 	or	r6,r7,r6
   845a8:	0005883a 	mov	r2,zero
   845ac:	003f3706 	br	8428c <__alt_data_end+0xfff8428c>
   845b0:	80002a26 	beq	r16,zero,8465c <__subdf3+0x534>
   845b4:	0101ffc4 	movi	r4,2047
   845b8:	49006626 	beq	r9,r4,84754 <__subdf3+0x62c>
   845bc:	0085c83a 	sub	r2,zero,r2
   845c0:	18c02034 	orhi	r3,r3,128
   845c4:	01000e04 	movi	r4,56
   845c8:	20807e16 	blt	r4,r2,847c4 <__subdf3+0x69c>
   845cc:	010007c4 	movi	r4,31
   845d0:	2080e716 	blt	r4,r2,84970 <__subdf3+0x848>
   845d4:	01000804 	movi	r4,32
   845d8:	2089c83a 	sub	r4,r4,r2
   845dc:	1914983a 	sll	r10,r3,r4
   845e0:	8890d83a 	srl	r8,r17,r2
   845e4:	8908983a 	sll	r4,r17,r4
   845e8:	1884d83a 	srl	r2,r3,r2
   845ec:	5222b03a 	or	r17,r10,r8
   845f0:	2006c03a 	cmpne	r3,r4,zero
   845f4:	88e2b03a 	or	r17,r17,r3
   845f8:	3463c83a 	sub	r17,r6,r17
   845fc:	2885c83a 	sub	r2,r5,r2
   84600:	344d803a 	cmpltu	r6,r6,r17
   84604:	1187c83a 	sub	r3,r2,r6
   84608:	4821883a 	mov	r16,r9
   8460c:	3825883a 	mov	r18,r7
   84610:	003f2306 	br	842a0 <__alt_data_end+0xfff842a0>
   84614:	24d0b03a 	or	r8,r4,r19
   84618:	40001b1e 	bne	r8,zero,84688 <__subdf3+0x560>
   8461c:	0005883a 	mov	r2,zero
   84620:	0009883a 	mov	r4,zero
   84624:	0021883a 	mov	r16,zero
   84628:	003f4906 	br	84350 <__alt_data_end+0xfff84350>
   8462c:	010007c4 	movi	r4,31
   84630:	20803a16 	blt	r4,r2,8471c <__subdf3+0x5f4>
   84634:	01000804 	movi	r4,32
   84638:	2089c83a 	sub	r4,r4,r2
   8463c:	2912983a 	sll	r9,r5,r4
   84640:	3090d83a 	srl	r8,r6,r2
   84644:	3108983a 	sll	r4,r6,r4
   84648:	2884d83a 	srl	r2,r5,r2
   8464c:	4a12b03a 	or	r9,r9,r8
   84650:	2008c03a 	cmpne	r4,r4,zero
   84654:	4912b03a 	or	r9,r9,r4
   84658:	003f4e06 	br	84394 <__alt_data_end+0xfff84394>
   8465c:	1c48b03a 	or	r4,r3,r17
   84660:	20003c26 	beq	r4,zero,84754 <__subdf3+0x62c>
   84664:	0084303a 	nor	r2,zero,r2
   84668:	1000381e 	bne	r2,zero,8474c <__subdf3+0x624>
   8466c:	3463c83a 	sub	r17,r6,r17
   84670:	28c5c83a 	sub	r2,r5,r3
   84674:	344d803a 	cmpltu	r6,r6,r17
   84678:	1187c83a 	sub	r3,r2,r6
   8467c:	4821883a 	mov	r16,r9
   84680:	3825883a 	mov	r18,r7
   84684:	003f0606 	br	842a0 <__alt_data_end+0xfff842a0>
   84688:	2023883a 	mov	r17,r4
   8468c:	003f0906 	br	842b4 <__alt_data_end+0xfff842b4>
   84690:	0101ffc4 	movi	r4,2047
   84694:	813f3a1e 	bne	r16,r4,84380 <__alt_data_end+0xfff84380>
   84698:	003ec406 	br	841ac <__alt_data_end+0xfff841ac>
   8469c:	0005883a 	mov	r2,zero
   846a0:	003fb106 	br	84568 <__alt_data_end+0xfff84568>
   846a4:	0005883a 	mov	r2,zero
   846a8:	003fbc06 	br	8459c <__alt_data_end+0xfff8459c>
   846ac:	1c44b03a 	or	r2,r3,r17
   846b0:	80008e1e 	bne	r16,zero,848ec <__subdf3+0x7c4>
   846b4:	1000c826 	beq	r2,zero,849d8 <__subdf3+0x8b0>
   846b8:	2984b03a 	or	r2,r5,r6
   846bc:	103ebb26 	beq	r2,zero,841ac <__alt_data_end+0xfff841ac>
   846c0:	8989883a 	add	r4,r17,r6
   846c4:	1945883a 	add	r2,r3,r5
   846c8:	2447803a 	cmpltu	r3,r4,r17
   846cc:	1887883a 	add	r3,r3,r2
   846d0:	1880202c 	andhi	r2,r3,128
   846d4:	2023883a 	mov	r17,r4
   846d8:	103f1626 	beq	r2,zero,84334 <__alt_data_end+0xfff84334>
   846dc:	00bfe034 	movhi	r2,65408
   846e0:	10bfffc4 	addi	r2,r2,-1
   846e4:	5021883a 	mov	r16,r10
   846e8:	1886703a 	and	r3,r3,r2
   846ec:	003eaf06 	br	841ac <__alt_data_end+0xfff841ac>
   846f0:	3825883a 	mov	r18,r7
   846f4:	003f0f06 	br	84334 <__alt_data_end+0xfff84334>
   846f8:	1c44b03a 	or	r2,r3,r17
   846fc:	8000251e 	bne	r16,zero,84794 <__subdf3+0x66c>
   84700:	1000661e 	bne	r2,zero,8489c <__subdf3+0x774>
   84704:	2990b03a 	or	r8,r5,r6
   84708:	40009626 	beq	r8,zero,84964 <__subdf3+0x83c>
   8470c:	2807883a 	mov	r3,r5
   84710:	3023883a 	mov	r17,r6
   84714:	3825883a 	mov	r18,r7
   84718:	003ea406 	br	841ac <__alt_data_end+0xfff841ac>
   8471c:	127ff804 	addi	r9,r2,-32
   84720:	01000804 	movi	r4,32
   84724:	2a52d83a 	srl	r9,r5,r9
   84728:	11008c26 	beq	r2,r4,8495c <__subdf3+0x834>
   8472c:	01001004 	movi	r4,64
   84730:	2085c83a 	sub	r2,r4,r2
   84734:	2884983a 	sll	r2,r5,r2
   84738:	118cb03a 	or	r6,r2,r6
   8473c:	300cc03a 	cmpne	r6,r6,zero
   84740:	4992b03a 	or	r9,r9,r6
   84744:	0005883a 	mov	r2,zero
   84748:	003f1206 	br	84394 <__alt_data_end+0xfff84394>
   8474c:	0101ffc4 	movi	r4,2047
   84750:	493f9c1e 	bne	r9,r4,845c4 <__alt_data_end+0xfff845c4>
   84754:	2807883a 	mov	r3,r5
   84758:	3023883a 	mov	r17,r6
   8475c:	4821883a 	mov	r16,r9
   84760:	3825883a 	mov	r18,r7
   84764:	003e9106 	br	841ac <__alt_data_end+0xfff841ac>
   84768:	80001f1e 	bne	r16,zero,847e8 <__subdf3+0x6c0>
   8476c:	1c48b03a 	or	r4,r3,r17
   84770:	20005a26 	beq	r4,zero,848dc <__subdf3+0x7b4>
   84774:	0084303a 	nor	r2,zero,r2
   84778:	1000561e 	bne	r2,zero,848d4 <__subdf3+0x7ac>
   8477c:	89a3883a 	add	r17,r17,r6
   84780:	1945883a 	add	r2,r3,r5
   84784:	898d803a 	cmpltu	r6,r17,r6
   84788:	3087883a 	add	r3,r6,r2
   8478c:	4821883a 	mov	r16,r9
   84790:	003f0506 	br	843a8 <__alt_data_end+0xfff843a8>
   84794:	10002b1e 	bne	r2,zero,84844 <__subdf3+0x71c>
   84798:	2984b03a 	or	r2,r5,r6
   8479c:	10008026 	beq	r2,zero,849a0 <__subdf3+0x878>
   847a0:	2807883a 	mov	r3,r5
   847a4:	3023883a 	mov	r17,r6
   847a8:	3825883a 	mov	r18,r7
   847ac:	0401ffc4 	movi	r16,2047
   847b0:	003e7e06 	br	841ac <__alt_data_end+0xfff841ac>
   847b4:	3809883a 	mov	r4,r7
   847b8:	0011883a 	mov	r8,zero
   847bc:	0005883a 	mov	r2,zero
   847c0:	003ee306 	br	84350 <__alt_data_end+0xfff84350>
   847c4:	1c62b03a 	or	r17,r3,r17
   847c8:	8822c03a 	cmpne	r17,r17,zero
   847cc:	0005883a 	mov	r2,zero
   847d0:	003f8906 	br	845f8 <__alt_data_end+0xfff845f8>
   847d4:	3809883a 	mov	r4,r7
   847d8:	4821883a 	mov	r16,r9
   847dc:	0011883a 	mov	r8,zero
   847e0:	0005883a 	mov	r2,zero
   847e4:	003eda06 	br	84350 <__alt_data_end+0xfff84350>
   847e8:	0101ffc4 	movi	r4,2047
   847ec:	49003b26 	beq	r9,r4,848dc <__subdf3+0x7b4>
   847f0:	0085c83a 	sub	r2,zero,r2
   847f4:	18c02034 	orhi	r3,r3,128
   847f8:	01000e04 	movi	r4,56
   847fc:	20806e16 	blt	r4,r2,849b8 <__subdf3+0x890>
   84800:	010007c4 	movi	r4,31
   84804:	20807716 	blt	r4,r2,849e4 <__subdf3+0x8bc>
   84808:	01000804 	movi	r4,32
   8480c:	2089c83a 	sub	r4,r4,r2
   84810:	1914983a 	sll	r10,r3,r4
   84814:	8890d83a 	srl	r8,r17,r2
   84818:	8908983a 	sll	r4,r17,r4
   8481c:	1884d83a 	srl	r2,r3,r2
   84820:	5222b03a 	or	r17,r10,r8
   84824:	2006c03a 	cmpne	r3,r4,zero
   84828:	88e2b03a 	or	r17,r17,r3
   8482c:	89a3883a 	add	r17,r17,r6
   84830:	1145883a 	add	r2,r2,r5
   84834:	898d803a 	cmpltu	r6,r17,r6
   84838:	3087883a 	add	r3,r6,r2
   8483c:	4821883a 	mov	r16,r9
   84840:	003ed906 	br	843a8 <__alt_data_end+0xfff843a8>
   84844:	2984b03a 	or	r2,r5,r6
   84848:	10004226 	beq	r2,zero,84954 <__subdf3+0x82c>
   8484c:	1808d0fa 	srli	r4,r3,3
   84850:	8822d0fa 	srli	r17,r17,3
   84854:	1806977a 	slli	r3,r3,29
   84858:	2080022c 	andhi	r2,r4,8
   8485c:	1c62b03a 	or	r17,r3,r17
   84860:	10000826 	beq	r2,zero,84884 <__subdf3+0x75c>
   84864:	2812d0fa 	srli	r9,r5,3
   84868:	4880022c 	andhi	r2,r9,8
   8486c:	1000051e 	bne	r2,zero,84884 <__subdf3+0x75c>
   84870:	300cd0fa 	srli	r6,r6,3
   84874:	2804977a 	slli	r2,r5,29
   84878:	4809883a 	mov	r4,r9
   8487c:	3825883a 	mov	r18,r7
   84880:	11a2b03a 	or	r17,r2,r6
   84884:	8806d77a 	srli	r3,r17,29
   84888:	200890fa 	slli	r4,r4,3
   8488c:	882290fa 	slli	r17,r17,3
   84890:	0401ffc4 	movi	r16,2047
   84894:	1906b03a 	or	r3,r3,r4
   84898:	003e4406 	br	841ac <__alt_data_end+0xfff841ac>
   8489c:	2984b03a 	or	r2,r5,r6
   848a0:	103e4226 	beq	r2,zero,841ac <__alt_data_end+0xfff841ac>
   848a4:	8989c83a 	sub	r4,r17,r6
   848a8:	8911803a 	cmpltu	r8,r17,r4
   848ac:	1945c83a 	sub	r2,r3,r5
   848b0:	1205c83a 	sub	r2,r2,r8
   848b4:	1200202c 	andhi	r8,r2,128
   848b8:	403e9a26 	beq	r8,zero,84324 <__alt_data_end+0xfff84324>
   848bc:	3463c83a 	sub	r17,r6,r17
   848c0:	28c5c83a 	sub	r2,r5,r3
   848c4:	344d803a 	cmpltu	r6,r6,r17
   848c8:	1187c83a 	sub	r3,r2,r6
   848cc:	3825883a 	mov	r18,r7
   848d0:	003e3606 	br	841ac <__alt_data_end+0xfff841ac>
   848d4:	0101ffc4 	movi	r4,2047
   848d8:	493fc71e 	bne	r9,r4,847f8 <__alt_data_end+0xfff847f8>
   848dc:	2807883a 	mov	r3,r5
   848e0:	3023883a 	mov	r17,r6
   848e4:	4821883a 	mov	r16,r9
   848e8:	003e3006 	br	841ac <__alt_data_end+0xfff841ac>
   848ec:	10003626 	beq	r2,zero,849c8 <__subdf3+0x8a0>
   848f0:	2984b03a 	or	r2,r5,r6
   848f4:	10001726 	beq	r2,zero,84954 <__subdf3+0x82c>
   848f8:	1808d0fa 	srli	r4,r3,3
   848fc:	8822d0fa 	srli	r17,r17,3
   84900:	1806977a 	slli	r3,r3,29
   84904:	2080022c 	andhi	r2,r4,8
   84908:	1c62b03a 	or	r17,r3,r17
   8490c:	10000726 	beq	r2,zero,8492c <__subdf3+0x804>
   84910:	2812d0fa 	srli	r9,r5,3
   84914:	4880022c 	andhi	r2,r9,8
   84918:	1000041e 	bne	r2,zero,8492c <__subdf3+0x804>
   8491c:	300cd0fa 	srli	r6,r6,3
   84920:	2804977a 	slli	r2,r5,29
   84924:	4809883a 	mov	r4,r9
   84928:	11a2b03a 	or	r17,r2,r6
   8492c:	8806d77a 	srli	r3,r17,29
   84930:	200890fa 	slli	r4,r4,3
   84934:	882290fa 	slli	r17,r17,3
   84938:	3825883a 	mov	r18,r7
   8493c:	1906b03a 	or	r3,r3,r4
   84940:	0401ffc4 	movi	r16,2047
   84944:	003e1906 	br	841ac <__alt_data_end+0xfff841ac>
   84948:	000b883a 	mov	r5,zero
   8494c:	0005883a 	mov	r2,zero
   84950:	003e2e06 	br	8420c <__alt_data_end+0xfff8420c>
   84954:	0401ffc4 	movi	r16,2047
   84958:	003e1406 	br	841ac <__alt_data_end+0xfff841ac>
   8495c:	0005883a 	mov	r2,zero
   84960:	003f7506 	br	84738 <__alt_data_end+0xfff84738>
   84964:	0005883a 	mov	r2,zero
   84968:	0009883a 	mov	r4,zero
   8496c:	003e7806 	br	84350 <__alt_data_end+0xfff84350>
   84970:	123ff804 	addi	r8,r2,-32
   84974:	01000804 	movi	r4,32
   84978:	1a10d83a 	srl	r8,r3,r8
   8497c:	11002526 	beq	r2,r4,84a14 <__subdf3+0x8ec>
   84980:	01001004 	movi	r4,64
   84984:	2085c83a 	sub	r2,r4,r2
   84988:	1884983a 	sll	r2,r3,r2
   8498c:	1444b03a 	or	r2,r2,r17
   84990:	1004c03a 	cmpne	r2,r2,zero
   84994:	40a2b03a 	or	r17,r8,r2
   84998:	0005883a 	mov	r2,zero
   8499c:	003f1606 	br	845f8 <__alt_data_end+0xfff845f8>
   849a0:	02000434 	movhi	r8,16
   849a4:	0009883a 	mov	r4,zero
   849a8:	423fffc4 	addi	r8,r8,-1
   849ac:	00bfffc4 	movi	r2,-1
   849b0:	0401ffc4 	movi	r16,2047
   849b4:	003e6606 	br	84350 <__alt_data_end+0xfff84350>
   849b8:	1c62b03a 	or	r17,r3,r17
   849bc:	8822c03a 	cmpne	r17,r17,zero
   849c0:	0005883a 	mov	r2,zero
   849c4:	003f9906 	br	8482c <__alt_data_end+0xfff8482c>
   849c8:	2807883a 	mov	r3,r5
   849cc:	3023883a 	mov	r17,r6
   849d0:	0401ffc4 	movi	r16,2047
   849d4:	003df506 	br	841ac <__alt_data_end+0xfff841ac>
   849d8:	2807883a 	mov	r3,r5
   849dc:	3023883a 	mov	r17,r6
   849e0:	003df206 	br	841ac <__alt_data_end+0xfff841ac>
   849e4:	123ff804 	addi	r8,r2,-32
   849e8:	01000804 	movi	r4,32
   849ec:	1a10d83a 	srl	r8,r3,r8
   849f0:	11000a26 	beq	r2,r4,84a1c <__subdf3+0x8f4>
   849f4:	01001004 	movi	r4,64
   849f8:	2085c83a 	sub	r2,r4,r2
   849fc:	1884983a 	sll	r2,r3,r2
   84a00:	1444b03a 	or	r2,r2,r17
   84a04:	1004c03a 	cmpne	r2,r2,zero
   84a08:	40a2b03a 	or	r17,r8,r2
   84a0c:	0005883a 	mov	r2,zero
   84a10:	003f8606 	br	8482c <__alt_data_end+0xfff8482c>
   84a14:	0005883a 	mov	r2,zero
   84a18:	003fdc06 	br	8498c <__alt_data_end+0xfff8498c>
   84a1c:	0005883a 	mov	r2,zero
   84a20:	003ff706 	br	84a00 <__alt_data_end+0xfff84a00>

00084a24 <__floatsidf>:
   84a24:	defffd04 	addi	sp,sp,-12
   84a28:	dfc00215 	stw	ra,8(sp)
   84a2c:	dc400115 	stw	r17,4(sp)
   84a30:	dc000015 	stw	r16,0(sp)
   84a34:	20002b26 	beq	r4,zero,84ae4 <__floatsidf+0xc0>
   84a38:	2023883a 	mov	r17,r4
   84a3c:	2020d7fa 	srli	r16,r4,31
   84a40:	20002d16 	blt	r4,zero,84af8 <__floatsidf+0xd4>
   84a44:	8809883a 	mov	r4,r17
   84a48:	0084db80 	call	84db8 <__clzsi2>
   84a4c:	01410784 	movi	r5,1054
   84a50:	288bc83a 	sub	r5,r5,r2
   84a54:	01010cc4 	movi	r4,1075
   84a58:	2149c83a 	sub	r4,r4,r5
   84a5c:	00c007c4 	movi	r3,31
   84a60:	1900160e 	bge	r3,r4,84abc <__floatsidf+0x98>
   84a64:	00c104c4 	movi	r3,1043
   84a68:	1947c83a 	sub	r3,r3,r5
   84a6c:	88c6983a 	sll	r3,r17,r3
   84a70:	00800434 	movhi	r2,16
   84a74:	10bfffc4 	addi	r2,r2,-1
   84a78:	1886703a 	and	r3,r3,r2
   84a7c:	2941ffcc 	andi	r5,r5,2047
   84a80:	800d883a 	mov	r6,r16
   84a84:	0005883a 	mov	r2,zero
   84a88:	280a953a 	slli	r5,r5,20
   84a8c:	31803fcc 	andi	r6,r6,255
   84a90:	01000434 	movhi	r4,16
   84a94:	300c97fa 	slli	r6,r6,31
   84a98:	213fffc4 	addi	r4,r4,-1
   84a9c:	1906703a 	and	r3,r3,r4
   84aa0:	1946b03a 	or	r3,r3,r5
   84aa4:	1986b03a 	or	r3,r3,r6
   84aa8:	dfc00217 	ldw	ra,8(sp)
   84aac:	dc400117 	ldw	r17,4(sp)
   84ab0:	dc000017 	ldw	r16,0(sp)
   84ab4:	dec00304 	addi	sp,sp,12
   84ab8:	f800283a 	ret
   84abc:	00c002c4 	movi	r3,11
   84ac0:	1887c83a 	sub	r3,r3,r2
   84ac4:	88c6d83a 	srl	r3,r17,r3
   84ac8:	8904983a 	sll	r2,r17,r4
   84acc:	01000434 	movhi	r4,16
   84ad0:	213fffc4 	addi	r4,r4,-1
   84ad4:	2941ffcc 	andi	r5,r5,2047
   84ad8:	1906703a 	and	r3,r3,r4
   84adc:	800d883a 	mov	r6,r16
   84ae0:	003fe906 	br	84a88 <__alt_data_end+0xfff84a88>
   84ae4:	000d883a 	mov	r6,zero
   84ae8:	000b883a 	mov	r5,zero
   84aec:	0007883a 	mov	r3,zero
   84af0:	0005883a 	mov	r2,zero
   84af4:	003fe406 	br	84a88 <__alt_data_end+0xfff84a88>
   84af8:	0123c83a 	sub	r17,zero,r4
   84afc:	003fd106 	br	84a44 <__alt_data_end+0xfff84a44>

00084b00 <__extendsfdf2>:
   84b00:	200ad5fa 	srli	r5,r4,23
   84b04:	defffd04 	addi	sp,sp,-12
   84b08:	dc400115 	stw	r17,4(sp)
   84b0c:	29403fcc 	andi	r5,r5,255
   84b10:	29800044 	addi	r6,r5,1
   84b14:	04402034 	movhi	r17,128
   84b18:	dc000015 	stw	r16,0(sp)
   84b1c:	8c7fffc4 	addi	r17,r17,-1
   84b20:	dfc00215 	stw	ra,8(sp)
   84b24:	31803fcc 	andi	r6,r6,255
   84b28:	00800044 	movi	r2,1
   84b2c:	8922703a 	and	r17,r17,r4
   84b30:	2020d7fa 	srli	r16,r4,31
   84b34:	1180110e 	bge	r2,r6,84b7c <__extendsfdf2+0x7c>
   84b38:	880cd0fa 	srli	r6,r17,3
   84b3c:	8822977a 	slli	r17,r17,29
   84b40:	2940e004 	addi	r5,r5,896
   84b44:	2941ffcc 	andi	r5,r5,2047
   84b48:	2804953a 	slli	r2,r5,20
   84b4c:	01400434 	movhi	r5,16
   84b50:	800697fa 	slli	r3,r16,31
   84b54:	297fffc4 	addi	r5,r5,-1
   84b58:	314a703a 	and	r5,r6,r5
   84b5c:	288ab03a 	or	r5,r5,r2
   84b60:	28c6b03a 	or	r3,r5,r3
   84b64:	8805883a 	mov	r2,r17
   84b68:	dfc00217 	ldw	ra,8(sp)
   84b6c:	dc400117 	ldw	r17,4(sp)
   84b70:	dc000017 	ldw	r16,0(sp)
   84b74:	dec00304 	addi	sp,sp,12
   84b78:	f800283a 	ret
   84b7c:	2800111e 	bne	r5,zero,84bc4 <__extendsfdf2+0xc4>
   84b80:	88001c26 	beq	r17,zero,84bf4 <__extendsfdf2+0xf4>
   84b84:	8809883a 	mov	r4,r17
   84b88:	0084db80 	call	84db8 <__clzsi2>
   84b8c:	00c00284 	movi	r3,10
   84b90:	18801b16 	blt	r3,r2,84c00 <__extendsfdf2+0x100>
   84b94:	018002c4 	movi	r6,11
   84b98:	308dc83a 	sub	r6,r6,r2
   84b9c:	11000544 	addi	r4,r2,21
   84ba0:	8986d83a 	srl	r3,r17,r6
   84ba4:	8922983a 	sll	r17,r17,r4
   84ba8:	0180e244 	movi	r6,905
   84bac:	01400434 	movhi	r5,16
   84bb0:	3085c83a 	sub	r2,r6,r2
   84bb4:	297fffc4 	addi	r5,r5,-1
   84bb8:	194c703a 	and	r6,r3,r5
   84bbc:	1141ffcc 	andi	r5,r2,2047
   84bc0:	003fe006 	br	84b44 <__alt_data_end+0xfff84b44>
   84bc4:	88000826 	beq	r17,zero,84be8 <__extendsfdf2+0xe8>
   84bc8:	880cd0fa 	srli	r6,r17,3
   84bcc:	00800434 	movhi	r2,16
   84bd0:	10bfffc4 	addi	r2,r2,-1
   84bd4:	31800234 	orhi	r6,r6,8
   84bd8:	8822977a 	slli	r17,r17,29
   84bdc:	308c703a 	and	r6,r6,r2
   84be0:	0141ffc4 	movi	r5,2047
   84be4:	003fd706 	br	84b44 <__alt_data_end+0xfff84b44>
   84be8:	0141ffc4 	movi	r5,2047
   84bec:	000d883a 	mov	r6,zero
   84bf0:	003fd406 	br	84b44 <__alt_data_end+0xfff84b44>
   84bf4:	000b883a 	mov	r5,zero
   84bf8:	000d883a 	mov	r6,zero
   84bfc:	003fd106 	br	84b44 <__alt_data_end+0xfff84b44>
   84c00:	11bffd44 	addi	r6,r2,-11
   84c04:	8986983a 	sll	r3,r17,r6
   84c08:	0023883a 	mov	r17,zero
   84c0c:	003fe606 	br	84ba8 <__alt_data_end+0xfff84ba8>

00084c10 <__truncdfsf2>:
   84c10:	2810d53a 	srli	r8,r5,20
   84c14:	01c00434 	movhi	r7,16
   84c18:	39ffffc4 	addi	r7,r7,-1
   84c1c:	29ce703a 	and	r7,r5,r7
   84c20:	4201ffcc 	andi	r8,r8,2047
   84c24:	380e90fa 	slli	r7,r7,3
   84c28:	200cd77a 	srli	r6,r4,29
   84c2c:	42400044 	addi	r9,r8,1
   84c30:	4a41ffcc 	andi	r9,r9,2047
   84c34:	00c00044 	movi	r3,1
   84c38:	280ad7fa 	srli	r5,r5,31
   84c3c:	31ceb03a 	or	r7,r6,r7
   84c40:	200490fa 	slli	r2,r4,3
   84c44:	1a40230e 	bge	r3,r9,84cd4 <__truncdfsf2+0xc4>
   84c48:	40ff2004 	addi	r3,r8,-896
   84c4c:	01803f84 	movi	r6,254
   84c50:	30c01516 	blt	r6,r3,84ca8 <__truncdfsf2+0x98>
   84c54:	00c0380e 	bge	zero,r3,84d38 <__truncdfsf2+0x128>
   84c58:	200c91ba 	slli	r6,r4,6
   84c5c:	380e90fa 	slli	r7,r7,3
   84c60:	1004d77a 	srli	r2,r2,29
   84c64:	300cc03a 	cmpne	r6,r6,zero
   84c68:	31ccb03a 	or	r6,r6,r7
   84c6c:	308cb03a 	or	r6,r6,r2
   84c70:	308001cc 	andi	r2,r6,7
   84c74:	10000426 	beq	r2,zero,84c88 <__truncdfsf2+0x78>
   84c78:	308003cc 	andi	r2,r6,15
   84c7c:	01000104 	movi	r4,4
   84c80:	11000126 	beq	r2,r4,84c88 <__truncdfsf2+0x78>
   84c84:	31800104 	addi	r6,r6,4
   84c88:	3081002c 	andhi	r2,r6,1024
   84c8c:	10001626 	beq	r2,zero,84ce8 <__truncdfsf2+0xd8>
   84c90:	18c00044 	addi	r3,r3,1
   84c94:	00803fc4 	movi	r2,255
   84c98:	18800326 	beq	r3,r2,84ca8 <__truncdfsf2+0x98>
   84c9c:	300c91ba 	slli	r6,r6,6
   84ca0:	300cd27a 	srli	r6,r6,9
   84ca4:	00000206 	br	84cb0 <__truncdfsf2+0xa0>
   84ca8:	00ffffc4 	movi	r3,-1
   84cac:	000d883a 	mov	r6,zero
   84cb0:	18c03fcc 	andi	r3,r3,255
   84cb4:	180895fa 	slli	r4,r3,23
   84cb8:	00c02034 	movhi	r3,128
   84cbc:	280a97fa 	slli	r5,r5,31
   84cc0:	18ffffc4 	addi	r3,r3,-1
   84cc4:	30c6703a 	and	r3,r6,r3
   84cc8:	1906b03a 	or	r3,r3,r4
   84ccc:	1944b03a 	or	r2,r3,r5
   84cd0:	f800283a 	ret
   84cd4:	40000b1e 	bne	r8,zero,84d04 <__truncdfsf2+0xf4>
   84cd8:	388cb03a 	or	r6,r7,r2
   84cdc:	0007883a 	mov	r3,zero
   84ce0:	30000426 	beq	r6,zero,84cf4 <__truncdfsf2+0xe4>
   84ce4:	01800144 	movi	r6,5
   84ce8:	00803fc4 	movi	r2,255
   84cec:	300cd0fa 	srli	r6,r6,3
   84cf0:	18800a26 	beq	r3,r2,84d1c <__truncdfsf2+0x10c>
   84cf4:	00802034 	movhi	r2,128
   84cf8:	10bfffc4 	addi	r2,r2,-1
   84cfc:	308c703a 	and	r6,r6,r2
   84d00:	003feb06 	br	84cb0 <__alt_data_end+0xfff84cb0>
   84d04:	3888b03a 	or	r4,r7,r2
   84d08:	203fe726 	beq	r4,zero,84ca8 <__alt_data_end+0xfff84ca8>
   84d0c:	380c90fa 	slli	r6,r7,3
   84d10:	00c03fc4 	movi	r3,255
   84d14:	31808034 	orhi	r6,r6,512
   84d18:	003fd506 	br	84c70 <__alt_data_end+0xfff84c70>
   84d1c:	303fe226 	beq	r6,zero,84ca8 <__alt_data_end+0xfff84ca8>
   84d20:	00802034 	movhi	r2,128
   84d24:	31801034 	orhi	r6,r6,64
   84d28:	10bfffc4 	addi	r2,r2,-1
   84d2c:	00ffffc4 	movi	r3,-1
   84d30:	308c703a 	and	r6,r6,r2
   84d34:	003fde06 	br	84cb0 <__alt_data_end+0xfff84cb0>
   84d38:	013ffa44 	movi	r4,-23
   84d3c:	19000e16 	blt	r3,r4,84d78 <__truncdfsf2+0x168>
   84d40:	01000784 	movi	r4,30
   84d44:	20c9c83a 	sub	r4,r4,r3
   84d48:	018007c4 	movi	r6,31
   84d4c:	39c02034 	orhi	r7,r7,128
   84d50:	31000b16 	blt	r6,r4,84d80 <__truncdfsf2+0x170>
   84d54:	423f2084 	addi	r8,r8,-894
   84d58:	120c983a 	sll	r6,r2,r8
   84d5c:	3a0e983a 	sll	r7,r7,r8
   84d60:	1104d83a 	srl	r2,r2,r4
   84d64:	300cc03a 	cmpne	r6,r6,zero
   84d68:	31ceb03a 	or	r7,r6,r7
   84d6c:	388cb03a 	or	r6,r7,r2
   84d70:	0007883a 	mov	r3,zero
   84d74:	003fbe06 	br	84c70 <__alt_data_end+0xfff84c70>
   84d78:	0007883a 	mov	r3,zero
   84d7c:	003fd906 	br	84ce4 <__alt_data_end+0xfff84ce4>
   84d80:	01bfff84 	movi	r6,-2
   84d84:	30cdc83a 	sub	r6,r6,r3
   84d88:	00c00804 	movi	r3,32
   84d8c:	398cd83a 	srl	r6,r7,r6
   84d90:	20c00726 	beq	r4,r3,84db0 <__truncdfsf2+0x1a0>
   84d94:	423f2884 	addi	r8,r8,-862
   84d98:	3a0e983a 	sll	r7,r7,r8
   84d9c:	3884b03a 	or	r2,r7,r2
   84da0:	1004c03a 	cmpne	r2,r2,zero
   84da4:	118cb03a 	or	r6,r2,r6
   84da8:	0007883a 	mov	r3,zero
   84dac:	003fb006 	br	84c70 <__alt_data_end+0xfff84c70>
   84db0:	000f883a 	mov	r7,zero
   84db4:	003ff906 	br	84d9c <__alt_data_end+0xfff84d9c>

00084db8 <__clzsi2>:
   84db8:	00bfffd4 	movui	r2,65535
   84dbc:	11000536 	bltu	r2,r4,84dd4 <__clzsi2+0x1c>
   84dc0:	00803fc4 	movi	r2,255
   84dc4:	11000f36 	bltu	r2,r4,84e04 <__clzsi2+0x4c>
   84dc8:	00800804 	movi	r2,32
   84dcc:	0007883a 	mov	r3,zero
   84dd0:	00000506 	br	84de8 <__clzsi2+0x30>
   84dd4:	00804034 	movhi	r2,256
   84dd8:	10bfffc4 	addi	r2,r2,-1
   84ddc:	11000c2e 	bgeu	r2,r4,84e10 <__clzsi2+0x58>
   84de0:	00800204 	movi	r2,8
   84de4:	00c00604 	movi	r3,24
   84de8:	20c8d83a 	srl	r4,r4,r3
   84dec:	00c00234 	movhi	r3,8
   84df0:	18dc1c44 	addi	r3,r3,28785
   84df4:	1909883a 	add	r4,r3,r4
   84df8:	20c00003 	ldbu	r3,0(r4)
   84dfc:	10c5c83a 	sub	r2,r2,r3
   84e00:	f800283a 	ret
   84e04:	00800604 	movi	r2,24
   84e08:	00c00204 	movi	r3,8
   84e0c:	003ff606 	br	84de8 <__alt_data_end+0xfff84de8>
   84e10:	00800404 	movi	r2,16
   84e14:	1007883a 	mov	r3,r2
   84e18:	003ff306 	br	84de8 <__alt_data_end+0xfff84de8>

00084e1c <__errno>:
   84e1c:	00800274 	movhi	r2,9
   84e20:	10a1f804 	addi	r2,r2,-30752
   84e24:	10800017 	ldw	r2,0(r2)
   84e28:	f800283a 	ret

00084e2c <alt_load_section>:
   84e2c:	defffc04 	addi	sp,sp,-16
   84e30:	df000315 	stw	fp,12(sp)
   84e34:	df000304 	addi	fp,sp,12
   84e38:	e13ffd15 	stw	r4,-12(fp)
   84e3c:	e17ffe15 	stw	r5,-8(fp)
   84e40:	e1bfff15 	stw	r6,-4(fp)
   84e44:	e0fffe17 	ldw	r3,-8(fp)
   84e48:	e0bffd17 	ldw	r2,-12(fp)
   84e4c:	18800c26 	beq	r3,r2,84e80 <alt_load_section+0x54>
   84e50:	00000806 	br	84e74 <alt_load_section+0x48>
   84e54:	e0bffe17 	ldw	r2,-8(fp)
   84e58:	10c00104 	addi	r3,r2,4
   84e5c:	e0fffe15 	stw	r3,-8(fp)
   84e60:	e0fffd17 	ldw	r3,-12(fp)
   84e64:	19000104 	addi	r4,r3,4
   84e68:	e13ffd15 	stw	r4,-12(fp)
   84e6c:	18c00017 	ldw	r3,0(r3)
   84e70:	10c00015 	stw	r3,0(r2)
   84e74:	e0fffe17 	ldw	r3,-8(fp)
   84e78:	e0bfff17 	ldw	r2,-4(fp)
   84e7c:	18bff51e 	bne	r3,r2,84e54 <__alt_data_end+0xfff84e54>
   84e80:	0001883a 	nop
   84e84:	e037883a 	mov	sp,fp
   84e88:	df000017 	ldw	fp,0(sp)
   84e8c:	dec00104 	addi	sp,sp,4
   84e90:	f800283a 	ret

00084e94 <alt_load>:
   84e94:	defffe04 	addi	sp,sp,-8
   84e98:	dfc00115 	stw	ra,4(sp)
   84e9c:	df000015 	stw	fp,0(sp)
   84ea0:	d839883a 	mov	fp,sp
   84ea4:	01800274 	movhi	r6,9
   84ea8:	31a20204 	addi	r6,r6,-30712
   84eac:	01400234 	movhi	r5,8
   84eb0:	295c6b04 	addi	r5,r5,29100
   84eb4:	01000274 	movhi	r4,9
   84eb8:	21220204 	addi	r4,r4,-30712
   84ebc:	0084e2c0 	call	84e2c <alt_load_section>
   84ec0:	01800234 	movhi	r6,8
   84ec4:	31809104 	addi	r6,r6,580
   84ec8:	01400234 	movhi	r5,8
   84ecc:	29400804 	addi	r5,r5,32
   84ed0:	01000234 	movhi	r4,8
   84ed4:	21000804 	addi	r4,r4,32
   84ed8:	0084e2c0 	call	84e2c <alt_load_section>
   84edc:	01800234 	movhi	r6,8
   84ee0:	319c6b04 	addi	r6,r6,29100
   84ee4:	01400234 	movhi	r5,8
   84ee8:	295c1b04 	addi	r5,r5,28780
   84eec:	01000234 	movhi	r4,8
   84ef0:	211c1b04 	addi	r4,r4,28780
   84ef4:	0084e2c0 	call	84e2c <alt_load_section>
   84ef8:	0085ce80 	call	85ce8 <alt_dcache_flush_all>
   84efc:	0085efc0 	call	85efc <alt_icache_flush_all>
   84f00:	0001883a 	nop
   84f04:	e037883a 	mov	sp,fp
   84f08:	dfc00117 	ldw	ra,4(sp)
   84f0c:	df000017 	ldw	fp,0(sp)
   84f10:	dec00204 	addi	sp,sp,8
   84f14:	f800283a 	ret

00084f18 <alt_main>:
   84f18:	defffd04 	addi	sp,sp,-12
   84f1c:	dfc00215 	stw	ra,8(sp)
   84f20:	df000115 	stw	fp,4(sp)
   84f24:	df000104 	addi	fp,sp,4
   84f28:	0009883a 	mov	r4,zero
   84f2c:	0084fc80 	call	84fc8 <alt_irq_init>
   84f30:	0001883a 	nop
   84f34:	00850000 	call	85000 <alt_sys_init>
   84f38:	01800234 	movhi	r6,8
   84f3c:	319c5e04 	addi	r6,r6,29048
   84f40:	01400234 	movhi	r5,8
   84f44:	295c5e04 	addi	r5,r5,29048
   84f48:	01000234 	movhi	r4,8
   84f4c:	211c5e04 	addi	r4,r4,29048
   84f50:	00862940 	call	86294 <alt_io_redirect>
   84f54:	0085e3c0 	call	85e3c <_do_ctors>
   84f58:	01000234 	movhi	r4,8
   84f5c:	2117a704 	addi	r4,r4,24220
   84f60:	0086af80 	call	86af8 <atexit>
   84f64:	d0a5a317 	ldw	r2,-26996(gp)
   84f68:	d0e5a417 	ldw	r3,-26992(gp)
   84f6c:	d125a517 	ldw	r4,-26988(gp)
   84f70:	200d883a 	mov	r6,r4
   84f74:	180b883a 	mov	r5,r3
   84f78:	1009883a 	mov	r4,r2
   84f7c:	00802900 	call	80290 <main>
   84f80:	e0bfff15 	stw	r2,-4(fp)
   84f84:	01000044 	movi	r4,1
   84f88:	0085c180 	call	85c18 <close>
   84f8c:	e13fff17 	ldw	r4,-4(fp)
   84f90:	0086b0c0 	call	86b0c <exit>

00084f94 <alt_dev_reg>:
   84f94:	defffd04 	addi	sp,sp,-12
   84f98:	dfc00215 	stw	ra,8(sp)
   84f9c:	df000115 	stw	fp,4(sp)
   84fa0:	df000104 	addi	fp,sp,4
   84fa4:	e13fff15 	stw	r4,-4(fp)
   84fa8:	d1600504 	addi	r5,gp,-32748
   84fac:	e13fff17 	ldw	r4,-4(fp)
   84fb0:	0085d980 	call	85d98 <alt_dev_llist_insert>
   84fb4:	e037883a 	mov	sp,fp
   84fb8:	dfc00117 	ldw	ra,4(sp)
   84fbc:	df000017 	ldw	fp,0(sp)
   84fc0:	dec00204 	addi	sp,sp,8
   84fc4:	f800283a 	ret

00084fc8 <alt_irq_init>:
   84fc8:	defffd04 	addi	sp,sp,-12
   84fcc:	dfc00215 	stw	ra,8(sp)
   84fd0:	df000115 	stw	fp,4(sp)
   84fd4:	df000104 	addi	fp,sp,4
   84fd8:	e13fff15 	stw	r4,-4(fp)
   84fdc:	008676c0 	call	8676c <altera_nios2_gen2_irq_init>
   84fe0:	00800044 	movi	r2,1
   84fe4:	1001703a 	wrctl	status,r2
   84fe8:	0001883a 	nop
   84fec:	e037883a 	mov	sp,fp
   84ff0:	dfc00117 	ldw	ra,4(sp)
   84ff4:	df000017 	ldw	fp,0(sp)
   84ff8:	dec00204 	addi	sp,sp,8
   84ffc:	f800283a 	ret

00085000 <alt_sys_init>:
   85000:	defffe04 	addi	sp,sp,-8
   85004:	dfc00115 	stw	ra,4(sp)
   85008:	df000015 	stw	fp,0(sp)
   8500c:	d839883a 	mov	fp,sp
   85010:	000d883a 	mov	r6,zero
   85014:	000b883a 	mov	r5,zero
   85018:	01000234 	movhi	r4,8
   8501c:	211d7e04 	addi	r4,r4,30200
   85020:	00851ac0 	call	851ac <altera_avalon_jtag_uart_init>
   85024:	01000234 	movhi	r4,8
   85028:	211d7404 	addi	r4,r4,30160
   8502c:	0084f940 	call	84f94 <alt_dev_reg>
   85030:	0001883a 	nop
   85034:	e037883a 	mov	sp,fp
   85038:	dfc00117 	ldw	ra,4(sp)
   8503c:	df000017 	ldw	fp,0(sp)
   85040:	dec00204 	addi	sp,sp,8
   85044:	f800283a 	ret

00085048 <altera_avalon_jtag_uart_read_fd>:
   85048:	defffa04 	addi	sp,sp,-24
   8504c:	dfc00515 	stw	ra,20(sp)
   85050:	df000415 	stw	fp,16(sp)
   85054:	df000404 	addi	fp,sp,16
   85058:	e13ffd15 	stw	r4,-12(fp)
   8505c:	e17ffe15 	stw	r5,-8(fp)
   85060:	e1bfff15 	stw	r6,-4(fp)
   85064:	e0bffd17 	ldw	r2,-12(fp)
   85068:	10800017 	ldw	r2,0(r2)
   8506c:	e0bffc15 	stw	r2,-16(fp)
   85070:	e0bffc17 	ldw	r2,-16(fp)
   85074:	10c00a04 	addi	r3,r2,40
   85078:	e0bffd17 	ldw	r2,-12(fp)
   8507c:	10800217 	ldw	r2,8(r2)
   85080:	100f883a 	mov	r7,r2
   85084:	e1bfff17 	ldw	r6,-4(fp)
   85088:	e17ffe17 	ldw	r5,-8(fp)
   8508c:	1809883a 	mov	r4,r3
   85090:	00856700 	call	85670 <altera_avalon_jtag_uart_read>
   85094:	e037883a 	mov	sp,fp
   85098:	dfc00117 	ldw	ra,4(sp)
   8509c:	df000017 	ldw	fp,0(sp)
   850a0:	dec00204 	addi	sp,sp,8
   850a4:	f800283a 	ret

000850a8 <altera_avalon_jtag_uart_write_fd>:
   850a8:	defffa04 	addi	sp,sp,-24
   850ac:	dfc00515 	stw	ra,20(sp)
   850b0:	df000415 	stw	fp,16(sp)
   850b4:	df000404 	addi	fp,sp,16
   850b8:	e13ffd15 	stw	r4,-12(fp)
   850bc:	e17ffe15 	stw	r5,-8(fp)
   850c0:	e1bfff15 	stw	r6,-4(fp)
   850c4:	e0bffd17 	ldw	r2,-12(fp)
   850c8:	10800017 	ldw	r2,0(r2)
   850cc:	e0bffc15 	stw	r2,-16(fp)
   850d0:	e0bffc17 	ldw	r2,-16(fp)
   850d4:	10c00a04 	addi	r3,r2,40
   850d8:	e0bffd17 	ldw	r2,-12(fp)
   850dc:	10800217 	ldw	r2,8(r2)
   850e0:	100f883a 	mov	r7,r2
   850e4:	e1bfff17 	ldw	r6,-4(fp)
   850e8:	e17ffe17 	ldw	r5,-8(fp)
   850ec:	1809883a 	mov	r4,r3
   850f0:	008588c0 	call	8588c <altera_avalon_jtag_uart_write>
   850f4:	e037883a 	mov	sp,fp
   850f8:	dfc00117 	ldw	ra,4(sp)
   850fc:	df000017 	ldw	fp,0(sp)
   85100:	dec00204 	addi	sp,sp,8
   85104:	f800283a 	ret

00085108 <altera_avalon_jtag_uart_close_fd>:
   85108:	defffc04 	addi	sp,sp,-16
   8510c:	dfc00315 	stw	ra,12(sp)
   85110:	df000215 	stw	fp,8(sp)
   85114:	df000204 	addi	fp,sp,8
   85118:	e13fff15 	stw	r4,-4(fp)
   8511c:	e0bfff17 	ldw	r2,-4(fp)
   85120:	10800017 	ldw	r2,0(r2)
   85124:	e0bffe15 	stw	r2,-8(fp)
   85128:	e0bffe17 	ldw	r2,-8(fp)
   8512c:	10c00a04 	addi	r3,r2,40
   85130:	e0bfff17 	ldw	r2,-4(fp)
   85134:	10800217 	ldw	r2,8(r2)
   85138:	100b883a 	mov	r5,r2
   8513c:	1809883a 	mov	r4,r3
   85140:	00855180 	call	85518 <altera_avalon_jtag_uart_close>
   85144:	e037883a 	mov	sp,fp
   85148:	dfc00117 	ldw	ra,4(sp)
   8514c:	df000017 	ldw	fp,0(sp)
   85150:	dec00204 	addi	sp,sp,8
   85154:	f800283a 	ret

00085158 <altera_avalon_jtag_uart_ioctl_fd>:
   85158:	defffa04 	addi	sp,sp,-24
   8515c:	dfc00515 	stw	ra,20(sp)
   85160:	df000415 	stw	fp,16(sp)
   85164:	df000404 	addi	fp,sp,16
   85168:	e13ffd15 	stw	r4,-12(fp)
   8516c:	e17ffe15 	stw	r5,-8(fp)
   85170:	e1bfff15 	stw	r6,-4(fp)
   85174:	e0bffd17 	ldw	r2,-12(fp)
   85178:	10800017 	ldw	r2,0(r2)
   8517c:	e0bffc15 	stw	r2,-16(fp)
   85180:	e0bffc17 	ldw	r2,-16(fp)
   85184:	10800a04 	addi	r2,r2,40
   85188:	e1bfff17 	ldw	r6,-4(fp)
   8518c:	e17ffe17 	ldw	r5,-8(fp)
   85190:	1009883a 	mov	r4,r2
   85194:	00855800 	call	85580 <altera_avalon_jtag_uart_ioctl>
   85198:	e037883a 	mov	sp,fp
   8519c:	dfc00117 	ldw	ra,4(sp)
   851a0:	df000017 	ldw	fp,0(sp)
   851a4:	dec00204 	addi	sp,sp,8
   851a8:	f800283a 	ret

000851ac <altera_avalon_jtag_uart_init>:
   851ac:	defffa04 	addi	sp,sp,-24
   851b0:	dfc00515 	stw	ra,20(sp)
   851b4:	df000415 	stw	fp,16(sp)
   851b8:	df000404 	addi	fp,sp,16
   851bc:	e13ffd15 	stw	r4,-12(fp)
   851c0:	e17ffe15 	stw	r5,-8(fp)
   851c4:	e1bfff15 	stw	r6,-4(fp)
   851c8:	e0bffd17 	ldw	r2,-12(fp)
   851cc:	00c00044 	movi	r3,1
   851d0:	10c00815 	stw	r3,32(r2)
   851d4:	e0bffd17 	ldw	r2,-12(fp)
   851d8:	10800017 	ldw	r2,0(r2)
   851dc:	10800104 	addi	r2,r2,4
   851e0:	1007883a 	mov	r3,r2
   851e4:	e0bffd17 	ldw	r2,-12(fp)
   851e8:	10800817 	ldw	r2,32(r2)
   851ec:	18800035 	stwio	r2,0(r3)
   851f0:	e0bffe17 	ldw	r2,-8(fp)
   851f4:	e0ffff17 	ldw	r3,-4(fp)
   851f8:	d8000015 	stw	zero,0(sp)
   851fc:	e1fffd17 	ldw	r7,-12(fp)
   85200:	01800234 	movhi	r6,8
   85204:	31949b04 	addi	r6,r6,21100
   85208:	180b883a 	mov	r5,r3
   8520c:	1009883a 	mov	r4,r2
   85210:	0085f300 	call	85f30 <alt_ic_isr_register>
   85214:	e0bffd17 	ldw	r2,-12(fp)
   85218:	10000915 	stw	zero,36(r2)
   8521c:	e0bffd17 	ldw	r2,-12(fp)
   85220:	10800204 	addi	r2,r2,8
   85224:	d0e5a717 	ldw	r3,-26980(gp)
   85228:	e1fffd17 	ldw	r7,-12(fp)
   8522c:	01800234 	movhi	r6,8
   85230:	31951e04 	addi	r6,r6,21624
   85234:	180b883a 	mov	r5,r3
   85238:	1009883a 	mov	r4,r2
   8523c:	0085ab00 	call	85ab0 <alt_alarm_start>
   85240:	1000040e 	bge	r2,zero,85254 <altera_avalon_jtag_uart_init+0xa8>
   85244:	e0fffd17 	ldw	r3,-12(fp)
   85248:	00a00034 	movhi	r2,32768
   8524c:	10bfffc4 	addi	r2,r2,-1
   85250:	18800115 	stw	r2,4(r3)
   85254:	0001883a 	nop
   85258:	e037883a 	mov	sp,fp
   8525c:	dfc00117 	ldw	ra,4(sp)
   85260:	df000017 	ldw	fp,0(sp)
   85264:	dec00204 	addi	sp,sp,8
   85268:	f800283a 	ret

0008526c <altera_avalon_jtag_uart_irq>:
   8526c:	defff804 	addi	sp,sp,-32
   85270:	df000715 	stw	fp,28(sp)
   85274:	df000704 	addi	fp,sp,28
   85278:	e13fff15 	stw	r4,-4(fp)
   8527c:	e0bfff17 	ldw	r2,-4(fp)
   85280:	e0bffb15 	stw	r2,-20(fp)
   85284:	e0bffb17 	ldw	r2,-20(fp)
   85288:	10800017 	ldw	r2,0(r2)
   8528c:	e0bffc15 	stw	r2,-16(fp)
   85290:	e0bffc17 	ldw	r2,-16(fp)
   85294:	10800104 	addi	r2,r2,4
   85298:	10800037 	ldwio	r2,0(r2)
   8529c:	e0bffd15 	stw	r2,-12(fp)
   852a0:	e0bffd17 	ldw	r2,-12(fp)
   852a4:	1080c00c 	andi	r2,r2,768
   852a8:	10006d26 	beq	r2,zero,85460 <altera_avalon_jtag_uart_irq+0x1f4>
   852ac:	e0bffd17 	ldw	r2,-12(fp)
   852b0:	1080400c 	andi	r2,r2,256
   852b4:	10003526 	beq	r2,zero,8538c <altera_avalon_jtag_uart_irq+0x120>
   852b8:	00800074 	movhi	r2,1
   852bc:	e0bff915 	stw	r2,-28(fp)
   852c0:	e0bffb17 	ldw	r2,-20(fp)
   852c4:	10800a17 	ldw	r2,40(r2)
   852c8:	10800044 	addi	r2,r2,1
   852cc:	1081ffcc 	andi	r2,r2,2047
   852d0:	e0bffe15 	stw	r2,-8(fp)
   852d4:	e0bffb17 	ldw	r2,-20(fp)
   852d8:	10c00b17 	ldw	r3,44(r2)
   852dc:	e0bffe17 	ldw	r2,-8(fp)
   852e0:	18801526 	beq	r3,r2,85338 <altera_avalon_jtag_uart_irq+0xcc>
   852e4:	e0bffc17 	ldw	r2,-16(fp)
   852e8:	10800037 	ldwio	r2,0(r2)
   852ec:	e0bff915 	stw	r2,-28(fp)
   852f0:	e0bff917 	ldw	r2,-28(fp)
   852f4:	10a0000c 	andi	r2,r2,32768
   852f8:	10001126 	beq	r2,zero,85340 <altera_avalon_jtag_uart_irq+0xd4>
   852fc:	e0bffb17 	ldw	r2,-20(fp)
   85300:	10800a17 	ldw	r2,40(r2)
   85304:	e0fff917 	ldw	r3,-28(fp)
   85308:	1809883a 	mov	r4,r3
   8530c:	e0fffb17 	ldw	r3,-20(fp)
   85310:	1885883a 	add	r2,r3,r2
   85314:	10800e04 	addi	r2,r2,56
   85318:	11000005 	stb	r4,0(r2)
   8531c:	e0bffb17 	ldw	r2,-20(fp)
   85320:	10800a17 	ldw	r2,40(r2)
   85324:	10800044 	addi	r2,r2,1
   85328:	10c1ffcc 	andi	r3,r2,2047
   8532c:	e0bffb17 	ldw	r2,-20(fp)
   85330:	10c00a15 	stw	r3,40(r2)
   85334:	003fe206 	br	852c0 <__alt_data_end+0xfff852c0>
   85338:	0001883a 	nop
   8533c:	00000106 	br	85344 <altera_avalon_jtag_uart_irq+0xd8>
   85340:	0001883a 	nop
   85344:	e0bff917 	ldw	r2,-28(fp)
   85348:	10bfffec 	andhi	r2,r2,65535
   8534c:	10000f26 	beq	r2,zero,8538c <altera_avalon_jtag_uart_irq+0x120>
   85350:	e0bffb17 	ldw	r2,-20(fp)
   85354:	10c00817 	ldw	r3,32(r2)
   85358:	00bfff84 	movi	r2,-2
   8535c:	1886703a 	and	r3,r3,r2
   85360:	e0bffb17 	ldw	r2,-20(fp)
   85364:	10c00815 	stw	r3,32(r2)
   85368:	e0bffc17 	ldw	r2,-16(fp)
   8536c:	10800104 	addi	r2,r2,4
   85370:	1007883a 	mov	r3,r2
   85374:	e0bffb17 	ldw	r2,-20(fp)
   85378:	10800817 	ldw	r2,32(r2)
   8537c:	18800035 	stwio	r2,0(r3)
   85380:	e0bffc17 	ldw	r2,-16(fp)
   85384:	10800104 	addi	r2,r2,4
   85388:	10800037 	ldwio	r2,0(r2)
   8538c:	e0bffd17 	ldw	r2,-12(fp)
   85390:	1080800c 	andi	r2,r2,512
   85394:	103fbe26 	beq	r2,zero,85290 <__alt_data_end+0xfff85290>
   85398:	e0bffd17 	ldw	r2,-12(fp)
   8539c:	1004d43a 	srli	r2,r2,16
   853a0:	e0bffa15 	stw	r2,-24(fp)
   853a4:	00001406 	br	853f8 <altera_avalon_jtag_uart_irq+0x18c>
   853a8:	e0bffc17 	ldw	r2,-16(fp)
   853ac:	e0fffb17 	ldw	r3,-20(fp)
   853b0:	18c00d17 	ldw	r3,52(r3)
   853b4:	e13ffb17 	ldw	r4,-20(fp)
   853b8:	20c7883a 	add	r3,r4,r3
   853bc:	18c20e04 	addi	r3,r3,2104
   853c0:	18c00003 	ldbu	r3,0(r3)
   853c4:	18c03fcc 	andi	r3,r3,255
   853c8:	18c0201c 	xori	r3,r3,128
   853cc:	18ffe004 	addi	r3,r3,-128
   853d0:	10c00035 	stwio	r3,0(r2)
   853d4:	e0bffb17 	ldw	r2,-20(fp)
   853d8:	10800d17 	ldw	r2,52(r2)
   853dc:	10800044 	addi	r2,r2,1
   853e0:	10c1ffcc 	andi	r3,r2,2047
   853e4:	e0bffb17 	ldw	r2,-20(fp)
   853e8:	10c00d15 	stw	r3,52(r2)
   853ec:	e0bffa17 	ldw	r2,-24(fp)
   853f0:	10bfffc4 	addi	r2,r2,-1
   853f4:	e0bffa15 	stw	r2,-24(fp)
   853f8:	e0bffa17 	ldw	r2,-24(fp)
   853fc:	10000526 	beq	r2,zero,85414 <altera_avalon_jtag_uart_irq+0x1a8>
   85400:	e0bffb17 	ldw	r2,-20(fp)
   85404:	10c00d17 	ldw	r3,52(r2)
   85408:	e0bffb17 	ldw	r2,-20(fp)
   8540c:	10800c17 	ldw	r2,48(r2)
   85410:	18bfe51e 	bne	r3,r2,853a8 <__alt_data_end+0xfff853a8>
   85414:	e0bffa17 	ldw	r2,-24(fp)
   85418:	103f9d26 	beq	r2,zero,85290 <__alt_data_end+0xfff85290>
   8541c:	e0bffb17 	ldw	r2,-20(fp)
   85420:	10c00817 	ldw	r3,32(r2)
   85424:	00bfff44 	movi	r2,-3
   85428:	1886703a 	and	r3,r3,r2
   8542c:	e0bffb17 	ldw	r2,-20(fp)
   85430:	10c00815 	stw	r3,32(r2)
   85434:	e0bffb17 	ldw	r2,-20(fp)
   85438:	10800017 	ldw	r2,0(r2)
   8543c:	10800104 	addi	r2,r2,4
   85440:	1007883a 	mov	r3,r2
   85444:	e0bffb17 	ldw	r2,-20(fp)
   85448:	10800817 	ldw	r2,32(r2)
   8544c:	18800035 	stwio	r2,0(r3)
   85450:	e0bffc17 	ldw	r2,-16(fp)
   85454:	10800104 	addi	r2,r2,4
   85458:	10800037 	ldwio	r2,0(r2)
   8545c:	003f8c06 	br	85290 <__alt_data_end+0xfff85290>
   85460:	0001883a 	nop
   85464:	0001883a 	nop
   85468:	e037883a 	mov	sp,fp
   8546c:	df000017 	ldw	fp,0(sp)
   85470:	dec00104 	addi	sp,sp,4
   85474:	f800283a 	ret

00085478 <altera_avalon_jtag_uart_timeout>:
   85478:	defff804 	addi	sp,sp,-32
   8547c:	df000715 	stw	fp,28(sp)
   85480:	df000704 	addi	fp,sp,28
   85484:	e13ffb15 	stw	r4,-20(fp)
   85488:	e0bffb17 	ldw	r2,-20(fp)
   8548c:	e0bff915 	stw	r2,-28(fp)
   85490:	e0bff917 	ldw	r2,-28(fp)
   85494:	10800017 	ldw	r2,0(r2)
   85498:	10800104 	addi	r2,r2,4
   8549c:	10800037 	ldwio	r2,0(r2)
   854a0:	e0bffa15 	stw	r2,-24(fp)
   854a4:	e0bffa17 	ldw	r2,-24(fp)
   854a8:	1081000c 	andi	r2,r2,1024
   854ac:	10000b26 	beq	r2,zero,854dc <altera_avalon_jtag_uart_timeout+0x64>
   854b0:	e0bff917 	ldw	r2,-28(fp)
   854b4:	10800017 	ldw	r2,0(r2)
   854b8:	10800104 	addi	r2,r2,4
   854bc:	1007883a 	mov	r3,r2
   854c0:	e0bff917 	ldw	r2,-28(fp)
   854c4:	10800817 	ldw	r2,32(r2)
   854c8:	10810014 	ori	r2,r2,1024
   854cc:	18800035 	stwio	r2,0(r3)
   854d0:	e0bff917 	ldw	r2,-28(fp)
   854d4:	10000915 	stw	zero,36(r2)
   854d8:	00000a06 	br	85504 <altera_avalon_jtag_uart_timeout+0x8c>
   854dc:	e0bff917 	ldw	r2,-28(fp)
   854e0:	10c00917 	ldw	r3,36(r2)
   854e4:	00a00034 	movhi	r2,32768
   854e8:	10bfff04 	addi	r2,r2,-4
   854ec:	10c00536 	bltu	r2,r3,85504 <altera_avalon_jtag_uart_timeout+0x8c>
   854f0:	e0bff917 	ldw	r2,-28(fp)
   854f4:	10800917 	ldw	r2,36(r2)
   854f8:	10c00044 	addi	r3,r2,1
   854fc:	e0bff917 	ldw	r2,-28(fp)
   85500:	10c00915 	stw	r3,36(r2)
   85504:	d0a5a717 	ldw	r2,-26980(gp)
   85508:	e037883a 	mov	sp,fp
   8550c:	df000017 	ldw	fp,0(sp)
   85510:	dec00104 	addi	sp,sp,4
   85514:	f800283a 	ret

00085518 <altera_avalon_jtag_uart_close>:
   85518:	defffd04 	addi	sp,sp,-12
   8551c:	df000215 	stw	fp,8(sp)
   85520:	df000204 	addi	fp,sp,8
   85524:	e13ffe15 	stw	r4,-8(fp)
   85528:	e17fff15 	stw	r5,-4(fp)
   8552c:	00000506 	br	85544 <altera_avalon_jtag_uart_close+0x2c>
   85530:	e0bfff17 	ldw	r2,-4(fp)
   85534:	1090000c 	andi	r2,r2,16384
   85538:	10000226 	beq	r2,zero,85544 <altera_avalon_jtag_uart_close+0x2c>
   8553c:	00bffd44 	movi	r2,-11
   85540:	00000b06 	br	85570 <altera_avalon_jtag_uart_close+0x58>
   85544:	e0bffe17 	ldw	r2,-8(fp)
   85548:	10c00d17 	ldw	r3,52(r2)
   8554c:	e0bffe17 	ldw	r2,-8(fp)
   85550:	10800c17 	ldw	r2,48(r2)
   85554:	18800526 	beq	r3,r2,8556c <altera_avalon_jtag_uart_close+0x54>
   85558:	e0bffe17 	ldw	r2,-8(fp)
   8555c:	10c00917 	ldw	r3,36(r2)
   85560:	e0bffe17 	ldw	r2,-8(fp)
   85564:	10800117 	ldw	r2,4(r2)
   85568:	18bff136 	bltu	r3,r2,85530 <__alt_data_end+0xfff85530>
   8556c:	0005883a 	mov	r2,zero
   85570:	e037883a 	mov	sp,fp
   85574:	df000017 	ldw	fp,0(sp)
   85578:	dec00104 	addi	sp,sp,4
   8557c:	f800283a 	ret

00085580 <altera_avalon_jtag_uart_ioctl>:
   85580:	defffa04 	addi	sp,sp,-24
   85584:	df000515 	stw	fp,20(sp)
   85588:	df000504 	addi	fp,sp,20
   8558c:	e13ffd15 	stw	r4,-12(fp)
   85590:	e17ffe15 	stw	r5,-8(fp)
   85594:	e1bfff15 	stw	r6,-4(fp)
   85598:	00bff9c4 	movi	r2,-25
   8559c:	e0bffb15 	stw	r2,-20(fp)
   855a0:	e0bffe17 	ldw	r2,-8(fp)
   855a4:	10da8060 	cmpeqi	r3,r2,27137
   855a8:	1800031e 	bne	r3,zero,855b8 <altera_avalon_jtag_uart_ioctl+0x38>
   855ac:	109a80a0 	cmpeqi	r2,r2,27138
   855b0:	1000181e 	bne	r2,zero,85614 <altera_avalon_jtag_uart_ioctl+0x94>
   855b4:	00002906 	br	8565c <altera_avalon_jtag_uart_ioctl+0xdc>
   855b8:	e0bffd17 	ldw	r2,-12(fp)
   855bc:	10c00117 	ldw	r3,4(r2)
   855c0:	00a00034 	movhi	r2,32768
   855c4:	10bfffc4 	addi	r2,r2,-1
   855c8:	18802126 	beq	r3,r2,85650 <altera_avalon_jtag_uart_ioctl+0xd0>
   855cc:	e0bfff17 	ldw	r2,-4(fp)
   855d0:	10800017 	ldw	r2,0(r2)
   855d4:	e0bffc15 	stw	r2,-16(fp)
   855d8:	e0bffc17 	ldw	r2,-16(fp)
   855dc:	10800090 	cmplti	r2,r2,2
   855e0:	1000061e 	bne	r2,zero,855fc <altera_avalon_jtag_uart_ioctl+0x7c>
   855e4:	e0fffc17 	ldw	r3,-16(fp)
   855e8:	00a00034 	movhi	r2,32768
   855ec:	10bfffc4 	addi	r2,r2,-1
   855f0:	18800226 	beq	r3,r2,855fc <altera_avalon_jtag_uart_ioctl+0x7c>
   855f4:	e0bffc17 	ldw	r2,-16(fp)
   855f8:	00000206 	br	85604 <altera_avalon_jtag_uart_ioctl+0x84>
   855fc:	00a00034 	movhi	r2,32768
   85600:	10bfff84 	addi	r2,r2,-2
   85604:	e0fffd17 	ldw	r3,-12(fp)
   85608:	18800115 	stw	r2,4(r3)
   8560c:	e03ffb15 	stw	zero,-20(fp)
   85610:	00000f06 	br	85650 <altera_avalon_jtag_uart_ioctl+0xd0>
   85614:	e0bffd17 	ldw	r2,-12(fp)
   85618:	10c00117 	ldw	r3,4(r2)
   8561c:	00a00034 	movhi	r2,32768
   85620:	10bfffc4 	addi	r2,r2,-1
   85624:	18800c26 	beq	r3,r2,85658 <altera_avalon_jtag_uart_ioctl+0xd8>
   85628:	e0bffd17 	ldw	r2,-12(fp)
   8562c:	10c00917 	ldw	r3,36(r2)
   85630:	e0bffd17 	ldw	r2,-12(fp)
   85634:	10800117 	ldw	r2,4(r2)
   85638:	1885803a 	cmpltu	r2,r3,r2
   8563c:	10c03fcc 	andi	r3,r2,255
   85640:	e0bfff17 	ldw	r2,-4(fp)
   85644:	10c00015 	stw	r3,0(r2)
   85648:	e03ffb15 	stw	zero,-20(fp)
   8564c:	00000206 	br	85658 <altera_avalon_jtag_uart_ioctl+0xd8>
   85650:	0001883a 	nop
   85654:	00000106 	br	8565c <altera_avalon_jtag_uart_ioctl+0xdc>
   85658:	0001883a 	nop
   8565c:	e0bffb17 	ldw	r2,-20(fp)
   85660:	e037883a 	mov	sp,fp
   85664:	df000017 	ldw	fp,0(sp)
   85668:	dec00104 	addi	sp,sp,4
   8566c:	f800283a 	ret

00085670 <altera_avalon_jtag_uart_read>:
   85670:	defff304 	addi	sp,sp,-52
   85674:	dfc00c15 	stw	ra,48(sp)
   85678:	df000b15 	stw	fp,44(sp)
   8567c:	df000b04 	addi	fp,sp,44
   85680:	e13ffc15 	stw	r4,-16(fp)
   85684:	e17ffd15 	stw	r5,-12(fp)
   85688:	e1bffe15 	stw	r6,-8(fp)
   8568c:	e1ffff15 	stw	r7,-4(fp)
   85690:	e0bffd17 	ldw	r2,-12(fp)
   85694:	e0bff515 	stw	r2,-44(fp)
   85698:	00004706 	br	857b8 <altera_avalon_jtag_uart_read+0x148>
   8569c:	e0bffc17 	ldw	r2,-16(fp)
   856a0:	10800a17 	ldw	r2,40(r2)
   856a4:	e0bff715 	stw	r2,-36(fp)
   856a8:	e0bffc17 	ldw	r2,-16(fp)
   856ac:	10800b17 	ldw	r2,44(r2)
   856b0:	e0bff815 	stw	r2,-32(fp)
   856b4:	e0fff717 	ldw	r3,-36(fp)
   856b8:	e0bff817 	ldw	r2,-32(fp)
   856bc:	18800536 	bltu	r3,r2,856d4 <altera_avalon_jtag_uart_read+0x64>
   856c0:	e0fff717 	ldw	r3,-36(fp)
   856c4:	e0bff817 	ldw	r2,-32(fp)
   856c8:	1885c83a 	sub	r2,r3,r2
   856cc:	e0bff615 	stw	r2,-40(fp)
   856d0:	00000406 	br	856e4 <altera_avalon_jtag_uart_read+0x74>
   856d4:	00c20004 	movi	r3,2048
   856d8:	e0bff817 	ldw	r2,-32(fp)
   856dc:	1885c83a 	sub	r2,r3,r2
   856e0:	e0bff615 	stw	r2,-40(fp)
   856e4:	e0bff617 	ldw	r2,-40(fp)
   856e8:	10001e26 	beq	r2,zero,85764 <altera_avalon_jtag_uart_read+0xf4>
   856ec:	e0fffe17 	ldw	r3,-8(fp)
   856f0:	e0bff617 	ldw	r2,-40(fp)
   856f4:	1880022e 	bgeu	r3,r2,85700 <altera_avalon_jtag_uart_read+0x90>
   856f8:	e0bffe17 	ldw	r2,-8(fp)
   856fc:	e0bff615 	stw	r2,-40(fp)
   85700:	e0bffc17 	ldw	r2,-16(fp)
   85704:	10c00e04 	addi	r3,r2,56
   85708:	e0bff817 	ldw	r2,-32(fp)
   8570c:	1885883a 	add	r2,r3,r2
   85710:	e1bff617 	ldw	r6,-40(fp)
   85714:	100b883a 	mov	r5,r2
   85718:	e13ff517 	ldw	r4,-44(fp)
   8571c:	0086bc00 	call	86bc0 <memcpy>
   85720:	e0fff517 	ldw	r3,-44(fp)
   85724:	e0bff617 	ldw	r2,-40(fp)
   85728:	1885883a 	add	r2,r3,r2
   8572c:	e0bff515 	stw	r2,-44(fp)
   85730:	e0fffe17 	ldw	r3,-8(fp)
   85734:	e0bff617 	ldw	r2,-40(fp)
   85738:	1885c83a 	sub	r2,r3,r2
   8573c:	e0bffe15 	stw	r2,-8(fp)
   85740:	e0fff817 	ldw	r3,-32(fp)
   85744:	e0bff617 	ldw	r2,-40(fp)
   85748:	1885883a 	add	r2,r3,r2
   8574c:	10c1ffcc 	andi	r3,r2,2047
   85750:	e0bffc17 	ldw	r2,-16(fp)
   85754:	10c00b15 	stw	r3,44(r2)
   85758:	e0bffe17 	ldw	r2,-8(fp)
   8575c:	00bfcf16 	blt	zero,r2,8569c <__alt_data_end+0xfff8569c>
   85760:	00000106 	br	85768 <altera_avalon_jtag_uart_read+0xf8>
   85764:	0001883a 	nop
   85768:	e0fff517 	ldw	r3,-44(fp)
   8576c:	e0bffd17 	ldw	r2,-12(fp)
   85770:	1880141e 	bne	r3,r2,857c4 <altera_avalon_jtag_uart_read+0x154>
   85774:	e0bfff17 	ldw	r2,-4(fp)
   85778:	1090000c 	andi	r2,r2,16384
   8577c:	1000131e 	bne	r2,zero,857cc <altera_avalon_jtag_uart_read+0x15c>
   85780:	0001883a 	nop
   85784:	e0bffc17 	ldw	r2,-16(fp)
   85788:	10c00a17 	ldw	r3,40(r2)
   8578c:	e0bff717 	ldw	r2,-36(fp)
   85790:	1880051e 	bne	r3,r2,857a8 <altera_avalon_jtag_uart_read+0x138>
   85794:	e0bffc17 	ldw	r2,-16(fp)
   85798:	10c00917 	ldw	r3,36(r2)
   8579c:	e0bffc17 	ldw	r2,-16(fp)
   857a0:	10800117 	ldw	r2,4(r2)
   857a4:	18bff736 	bltu	r3,r2,85784 <__alt_data_end+0xfff85784>
   857a8:	e0bffc17 	ldw	r2,-16(fp)
   857ac:	10c00a17 	ldw	r3,40(r2)
   857b0:	e0bff717 	ldw	r2,-36(fp)
   857b4:	18800726 	beq	r3,r2,857d4 <altera_avalon_jtag_uart_read+0x164>
   857b8:	e0bffe17 	ldw	r2,-8(fp)
   857bc:	00bfb716 	blt	zero,r2,8569c <__alt_data_end+0xfff8569c>
   857c0:	00000506 	br	857d8 <altera_avalon_jtag_uart_read+0x168>
   857c4:	0001883a 	nop
   857c8:	00000306 	br	857d8 <altera_avalon_jtag_uart_read+0x168>
   857cc:	0001883a 	nop
   857d0:	00000106 	br	857d8 <altera_avalon_jtag_uart_read+0x168>
   857d4:	0001883a 	nop
   857d8:	e0fff517 	ldw	r3,-44(fp)
   857dc:	e0bffd17 	ldw	r2,-12(fp)
   857e0:	18801826 	beq	r3,r2,85844 <altera_avalon_jtag_uart_read+0x1d4>
   857e4:	0005303a 	rdctl	r2,status
   857e8:	e0bffb15 	stw	r2,-20(fp)
   857ec:	e0fffb17 	ldw	r3,-20(fp)
   857f0:	00bfff84 	movi	r2,-2
   857f4:	1884703a 	and	r2,r3,r2
   857f8:	1001703a 	wrctl	status,r2
   857fc:	e0bffb17 	ldw	r2,-20(fp)
   85800:	e0bffa15 	stw	r2,-24(fp)
   85804:	e0bffc17 	ldw	r2,-16(fp)
   85808:	10800817 	ldw	r2,32(r2)
   8580c:	10c00054 	ori	r3,r2,1
   85810:	e0bffc17 	ldw	r2,-16(fp)
   85814:	10c00815 	stw	r3,32(r2)
   85818:	e0bffc17 	ldw	r2,-16(fp)
   8581c:	10800017 	ldw	r2,0(r2)
   85820:	10800104 	addi	r2,r2,4
   85824:	1007883a 	mov	r3,r2
   85828:	e0bffc17 	ldw	r2,-16(fp)
   8582c:	10800817 	ldw	r2,32(r2)
   85830:	18800035 	stwio	r2,0(r3)
   85834:	e0bffa17 	ldw	r2,-24(fp)
   85838:	e0bff915 	stw	r2,-28(fp)
   8583c:	e0bff917 	ldw	r2,-28(fp)
   85840:	1001703a 	wrctl	status,r2
   85844:	e0fff517 	ldw	r3,-44(fp)
   85848:	e0bffd17 	ldw	r2,-12(fp)
   8584c:	18800426 	beq	r3,r2,85860 <altera_avalon_jtag_uart_read+0x1f0>
   85850:	e0fff517 	ldw	r3,-44(fp)
   85854:	e0bffd17 	ldw	r2,-12(fp)
   85858:	1885c83a 	sub	r2,r3,r2
   8585c:	00000606 	br	85878 <altera_avalon_jtag_uart_read+0x208>
   85860:	e0bfff17 	ldw	r2,-4(fp)
   85864:	1090000c 	andi	r2,r2,16384
   85868:	10000226 	beq	r2,zero,85874 <altera_avalon_jtag_uart_read+0x204>
   8586c:	00bffd44 	movi	r2,-11
   85870:	00000106 	br	85878 <altera_avalon_jtag_uart_read+0x208>
   85874:	00bffec4 	movi	r2,-5
   85878:	e037883a 	mov	sp,fp
   8587c:	dfc00117 	ldw	ra,4(sp)
   85880:	df000017 	ldw	fp,0(sp)
   85884:	dec00204 	addi	sp,sp,8
   85888:	f800283a 	ret

0008588c <altera_avalon_jtag_uart_write>:
   8588c:	defff304 	addi	sp,sp,-52
   85890:	dfc00c15 	stw	ra,48(sp)
   85894:	df000b15 	stw	fp,44(sp)
   85898:	df000b04 	addi	fp,sp,44
   8589c:	e13ffc15 	stw	r4,-16(fp)
   858a0:	e17ffd15 	stw	r5,-12(fp)
   858a4:	e1bffe15 	stw	r6,-8(fp)
   858a8:	e1ffff15 	stw	r7,-4(fp)
   858ac:	e03ff515 	stw	zero,-44(fp)
   858b0:	e0bffd17 	ldw	r2,-12(fp)
   858b4:	e0bff715 	stw	r2,-36(fp)
   858b8:	00003706 	br	85998 <altera_avalon_jtag_uart_write+0x10c>
   858bc:	e0bffc17 	ldw	r2,-16(fp)
   858c0:	10800c17 	ldw	r2,48(r2)
   858c4:	e0bff915 	stw	r2,-28(fp)
   858c8:	e0bffc17 	ldw	r2,-16(fp)
   858cc:	10800d17 	ldw	r2,52(r2)
   858d0:	e0bff515 	stw	r2,-44(fp)
   858d4:	e0fff917 	ldw	r3,-28(fp)
   858d8:	e0bff517 	ldw	r2,-44(fp)
   858dc:	1880062e 	bgeu	r3,r2,858f8 <altera_avalon_jtag_uart_write+0x6c>
   858e0:	e0fff517 	ldw	r3,-44(fp)
   858e4:	e0bff917 	ldw	r2,-28(fp)
   858e8:	1885c83a 	sub	r2,r3,r2
   858ec:	10bfffc4 	addi	r2,r2,-1
   858f0:	e0bff615 	stw	r2,-40(fp)
   858f4:	00000b06 	br	85924 <altera_avalon_jtag_uart_write+0x98>
   858f8:	e0bff517 	ldw	r2,-44(fp)
   858fc:	10000526 	beq	r2,zero,85914 <altera_avalon_jtag_uart_write+0x88>
   85900:	00c20004 	movi	r3,2048
   85904:	e0bff917 	ldw	r2,-28(fp)
   85908:	1885c83a 	sub	r2,r3,r2
   8590c:	e0bff615 	stw	r2,-40(fp)
   85910:	00000406 	br	85924 <altera_avalon_jtag_uart_write+0x98>
   85914:	00c1ffc4 	movi	r3,2047
   85918:	e0bff917 	ldw	r2,-28(fp)
   8591c:	1885c83a 	sub	r2,r3,r2
   85920:	e0bff615 	stw	r2,-40(fp)
   85924:	e0bff617 	ldw	r2,-40(fp)
   85928:	10001e26 	beq	r2,zero,859a4 <altera_avalon_jtag_uart_write+0x118>
   8592c:	e0fffe17 	ldw	r3,-8(fp)
   85930:	e0bff617 	ldw	r2,-40(fp)
   85934:	1880022e 	bgeu	r3,r2,85940 <altera_avalon_jtag_uart_write+0xb4>
   85938:	e0bffe17 	ldw	r2,-8(fp)
   8593c:	e0bff615 	stw	r2,-40(fp)
   85940:	e0bffc17 	ldw	r2,-16(fp)
   85944:	10c20e04 	addi	r3,r2,2104
   85948:	e0bff917 	ldw	r2,-28(fp)
   8594c:	1885883a 	add	r2,r3,r2
   85950:	e1bff617 	ldw	r6,-40(fp)
   85954:	e17ffd17 	ldw	r5,-12(fp)
   85958:	1009883a 	mov	r4,r2
   8595c:	0086bc00 	call	86bc0 <memcpy>
   85960:	e0fffd17 	ldw	r3,-12(fp)
   85964:	e0bff617 	ldw	r2,-40(fp)
   85968:	1885883a 	add	r2,r3,r2
   8596c:	e0bffd15 	stw	r2,-12(fp)
   85970:	e0fffe17 	ldw	r3,-8(fp)
   85974:	e0bff617 	ldw	r2,-40(fp)
   85978:	1885c83a 	sub	r2,r3,r2
   8597c:	e0bffe15 	stw	r2,-8(fp)
   85980:	e0fff917 	ldw	r3,-28(fp)
   85984:	e0bff617 	ldw	r2,-40(fp)
   85988:	1885883a 	add	r2,r3,r2
   8598c:	10c1ffcc 	andi	r3,r2,2047
   85990:	e0bffc17 	ldw	r2,-16(fp)
   85994:	10c00c15 	stw	r3,48(r2)
   85998:	e0bffe17 	ldw	r2,-8(fp)
   8599c:	00bfc716 	blt	zero,r2,858bc <__alt_data_end+0xfff858bc>
   859a0:	00000106 	br	859a8 <altera_avalon_jtag_uart_write+0x11c>
   859a4:	0001883a 	nop
   859a8:	0005303a 	rdctl	r2,status
   859ac:	e0bffb15 	stw	r2,-20(fp)
   859b0:	e0fffb17 	ldw	r3,-20(fp)
   859b4:	00bfff84 	movi	r2,-2
   859b8:	1884703a 	and	r2,r3,r2
   859bc:	1001703a 	wrctl	status,r2
   859c0:	e0bffb17 	ldw	r2,-20(fp)
   859c4:	e0bffa15 	stw	r2,-24(fp)
   859c8:	e0bffc17 	ldw	r2,-16(fp)
   859cc:	10800817 	ldw	r2,32(r2)
   859d0:	10c00094 	ori	r3,r2,2
   859d4:	e0bffc17 	ldw	r2,-16(fp)
   859d8:	10c00815 	stw	r3,32(r2)
   859dc:	e0bffc17 	ldw	r2,-16(fp)
   859e0:	10800017 	ldw	r2,0(r2)
   859e4:	10800104 	addi	r2,r2,4
   859e8:	1007883a 	mov	r3,r2
   859ec:	e0bffc17 	ldw	r2,-16(fp)
   859f0:	10800817 	ldw	r2,32(r2)
   859f4:	18800035 	stwio	r2,0(r3)
   859f8:	e0bffa17 	ldw	r2,-24(fp)
   859fc:	e0bff815 	stw	r2,-32(fp)
   85a00:	e0bff817 	ldw	r2,-32(fp)
   85a04:	1001703a 	wrctl	status,r2
   85a08:	e0bffe17 	ldw	r2,-8(fp)
   85a0c:	0080100e 	bge	zero,r2,85a50 <altera_avalon_jtag_uart_write+0x1c4>
   85a10:	e0bfff17 	ldw	r2,-4(fp)
   85a14:	1090000c 	andi	r2,r2,16384
   85a18:	1000101e 	bne	r2,zero,85a5c <altera_avalon_jtag_uart_write+0x1d0>
   85a1c:	0001883a 	nop
   85a20:	e0bffc17 	ldw	r2,-16(fp)
   85a24:	10c00d17 	ldw	r3,52(r2)
   85a28:	e0bff517 	ldw	r2,-44(fp)
   85a2c:	1880051e 	bne	r3,r2,85a44 <altera_avalon_jtag_uart_write+0x1b8>
   85a30:	e0bffc17 	ldw	r2,-16(fp)
   85a34:	10c00917 	ldw	r3,36(r2)
   85a38:	e0bffc17 	ldw	r2,-16(fp)
   85a3c:	10800117 	ldw	r2,4(r2)
   85a40:	18bff736 	bltu	r3,r2,85a20 <__alt_data_end+0xfff85a20>
   85a44:	e0bffc17 	ldw	r2,-16(fp)
   85a48:	10800917 	ldw	r2,36(r2)
   85a4c:	1000051e 	bne	r2,zero,85a64 <altera_avalon_jtag_uart_write+0x1d8>
   85a50:	e0bffe17 	ldw	r2,-8(fp)
   85a54:	00bfd016 	blt	zero,r2,85998 <__alt_data_end+0xfff85998>
   85a58:	00000306 	br	85a68 <altera_avalon_jtag_uart_write+0x1dc>
   85a5c:	0001883a 	nop
   85a60:	00000106 	br	85a68 <altera_avalon_jtag_uart_write+0x1dc>
   85a64:	0001883a 	nop
   85a68:	e0fffd17 	ldw	r3,-12(fp)
   85a6c:	e0bff717 	ldw	r2,-36(fp)
   85a70:	18800426 	beq	r3,r2,85a84 <altera_avalon_jtag_uart_write+0x1f8>
   85a74:	e0fffd17 	ldw	r3,-12(fp)
   85a78:	e0bff717 	ldw	r2,-36(fp)
   85a7c:	1885c83a 	sub	r2,r3,r2
   85a80:	00000606 	br	85a9c <altera_avalon_jtag_uart_write+0x210>
   85a84:	e0bfff17 	ldw	r2,-4(fp)
   85a88:	1090000c 	andi	r2,r2,16384
   85a8c:	10000226 	beq	r2,zero,85a98 <altera_avalon_jtag_uart_write+0x20c>
   85a90:	00bffd44 	movi	r2,-11
   85a94:	00000106 	br	85a9c <altera_avalon_jtag_uart_write+0x210>
   85a98:	00bffec4 	movi	r2,-5
   85a9c:	e037883a 	mov	sp,fp
   85aa0:	dfc00117 	ldw	ra,4(sp)
   85aa4:	df000017 	ldw	fp,0(sp)
   85aa8:	dec00204 	addi	sp,sp,8
   85aac:	f800283a 	ret

00085ab0 <alt_alarm_start>:
   85ab0:	defff504 	addi	sp,sp,-44
   85ab4:	df000a15 	stw	fp,40(sp)
   85ab8:	df000a04 	addi	fp,sp,40
   85abc:	e13ffc15 	stw	r4,-16(fp)
   85ac0:	e17ffd15 	stw	r5,-12(fp)
   85ac4:	e1bffe15 	stw	r6,-8(fp)
   85ac8:	e1ffff15 	stw	r7,-4(fp)
   85acc:	e03ff615 	stw	zero,-40(fp)
   85ad0:	d0a5a717 	ldw	r2,-26980(gp)
   85ad4:	10003c26 	beq	r2,zero,85bc8 <alt_alarm_start+0x118>
   85ad8:	e0bffc17 	ldw	r2,-16(fp)
   85adc:	10003826 	beq	r2,zero,85bc0 <alt_alarm_start+0x110>
   85ae0:	e0bffc17 	ldw	r2,-16(fp)
   85ae4:	e0fffe17 	ldw	r3,-8(fp)
   85ae8:	10c00315 	stw	r3,12(r2)
   85aec:	e0bffc17 	ldw	r2,-16(fp)
   85af0:	e0ffff17 	ldw	r3,-4(fp)
   85af4:	10c00515 	stw	r3,20(r2)
   85af8:	0005303a 	rdctl	r2,status
   85afc:	e0bff915 	stw	r2,-28(fp)
   85b00:	e0fff917 	ldw	r3,-28(fp)
   85b04:	00bfff84 	movi	r2,-2
   85b08:	1884703a 	and	r2,r3,r2
   85b0c:	1001703a 	wrctl	status,r2
   85b10:	e0bff917 	ldw	r2,-28(fp)
   85b14:	e0bff815 	stw	r2,-32(fp)
   85b18:	d0a5a817 	ldw	r2,-26976(gp)
   85b1c:	e0bff615 	stw	r2,-40(fp)
   85b20:	e0fffd17 	ldw	r3,-12(fp)
   85b24:	e0bff617 	ldw	r2,-40(fp)
   85b28:	1885883a 	add	r2,r3,r2
   85b2c:	10c00044 	addi	r3,r2,1
   85b30:	e0bffc17 	ldw	r2,-16(fp)
   85b34:	10c00215 	stw	r3,8(r2)
   85b38:	e0bffc17 	ldw	r2,-16(fp)
   85b3c:	10c00217 	ldw	r3,8(r2)
   85b40:	e0bff617 	ldw	r2,-40(fp)
   85b44:	1880042e 	bgeu	r3,r2,85b58 <alt_alarm_start+0xa8>
   85b48:	e0bffc17 	ldw	r2,-16(fp)
   85b4c:	00c00044 	movi	r3,1
   85b50:	10c00405 	stb	r3,16(r2)
   85b54:	00000206 	br	85b60 <alt_alarm_start+0xb0>
   85b58:	e0bffc17 	ldw	r2,-16(fp)
   85b5c:	10000405 	stb	zero,16(r2)
   85b60:	e0bffc17 	ldw	r2,-16(fp)
   85b64:	d0e00a04 	addi	r3,gp,-32728
   85b68:	e0fffa15 	stw	r3,-24(fp)
   85b6c:	e0bffb15 	stw	r2,-20(fp)
   85b70:	e0bffb17 	ldw	r2,-20(fp)
   85b74:	e0fffa17 	ldw	r3,-24(fp)
   85b78:	10c00115 	stw	r3,4(r2)
   85b7c:	e0bffa17 	ldw	r2,-24(fp)
   85b80:	10c00017 	ldw	r3,0(r2)
   85b84:	e0bffb17 	ldw	r2,-20(fp)
   85b88:	10c00015 	stw	r3,0(r2)
   85b8c:	e0bffa17 	ldw	r2,-24(fp)
   85b90:	10800017 	ldw	r2,0(r2)
   85b94:	e0fffb17 	ldw	r3,-20(fp)
   85b98:	10c00115 	stw	r3,4(r2)
   85b9c:	e0bffa17 	ldw	r2,-24(fp)
   85ba0:	e0fffb17 	ldw	r3,-20(fp)
   85ba4:	10c00015 	stw	r3,0(r2)
   85ba8:	e0bff817 	ldw	r2,-32(fp)
   85bac:	e0bff715 	stw	r2,-36(fp)
   85bb0:	e0bff717 	ldw	r2,-36(fp)
   85bb4:	1001703a 	wrctl	status,r2
   85bb8:	0005883a 	mov	r2,zero
   85bbc:	00000306 	br	85bcc <alt_alarm_start+0x11c>
   85bc0:	00bffa84 	movi	r2,-22
   85bc4:	00000106 	br	85bcc <alt_alarm_start+0x11c>
   85bc8:	00bfde84 	movi	r2,-134
   85bcc:	e037883a 	mov	sp,fp
   85bd0:	df000017 	ldw	fp,0(sp)
   85bd4:	dec00104 	addi	sp,sp,4
   85bd8:	f800283a 	ret

00085bdc <alt_get_errno>:
   85bdc:	defffe04 	addi	sp,sp,-8
   85be0:	dfc00115 	stw	ra,4(sp)
   85be4:	df000015 	stw	fp,0(sp)
   85be8:	d839883a 	mov	fp,sp
   85bec:	d0a00817 	ldw	r2,-32736(gp)
   85bf0:	10000326 	beq	r2,zero,85c00 <alt_get_errno+0x24>
   85bf4:	d0a00817 	ldw	r2,-32736(gp)
   85bf8:	103ee83a 	callr	r2
   85bfc:	00000106 	br	85c04 <alt_get_errno+0x28>
   85c00:	d0a5aa04 	addi	r2,gp,-26968
   85c04:	e037883a 	mov	sp,fp
   85c08:	dfc00117 	ldw	ra,4(sp)
   85c0c:	df000017 	ldw	fp,0(sp)
   85c10:	dec00204 	addi	sp,sp,8
   85c14:	f800283a 	ret

00085c18 <close>:
   85c18:	defffb04 	addi	sp,sp,-20
   85c1c:	dfc00415 	stw	ra,16(sp)
   85c20:	df000315 	stw	fp,12(sp)
   85c24:	df000304 	addi	fp,sp,12
   85c28:	e13fff15 	stw	r4,-4(fp)
   85c2c:	e0bfff17 	ldw	r2,-4(fp)
   85c30:	10000616 	blt	r2,zero,85c4c <close+0x34>
   85c34:	e0bfff17 	ldw	r2,-4(fp)
   85c38:	10c00324 	muli	r3,r2,12
   85c3c:	00800274 	movhi	r2,9
   85c40:	10a19604 	addi	r2,r2,-31144
   85c44:	1885883a 	add	r2,r3,r2
   85c48:	00000106 	br	85c50 <close+0x38>
   85c4c:	0005883a 	mov	r2,zero
   85c50:	e0bffd15 	stw	r2,-12(fp)
   85c54:	e0bffd17 	ldw	r2,-12(fp)
   85c58:	10001926 	beq	r2,zero,85cc0 <close+0xa8>
   85c5c:	e0bffd17 	ldw	r2,-12(fp)
   85c60:	10800017 	ldw	r2,0(r2)
   85c64:	10800417 	ldw	r2,16(r2)
   85c68:	10000626 	beq	r2,zero,85c84 <close+0x6c>
   85c6c:	e0bffd17 	ldw	r2,-12(fp)
   85c70:	10800017 	ldw	r2,0(r2)
   85c74:	10800417 	ldw	r2,16(r2)
   85c78:	e13ffd17 	ldw	r4,-12(fp)
   85c7c:	103ee83a 	callr	r2
   85c80:	00000106 	br	85c88 <close+0x70>
   85c84:	0005883a 	mov	r2,zero
   85c88:	e0bffe15 	stw	r2,-8(fp)
   85c8c:	e13fff17 	ldw	r4,-4(fp)
   85c90:	00865640 	call	86564 <alt_release_fd>
   85c94:	e0bffe17 	ldw	r2,-8(fp)
   85c98:	1000070e 	bge	r2,zero,85cb8 <close+0xa0>
   85c9c:	0085bdc0 	call	85bdc <alt_get_errno>
   85ca0:	1007883a 	mov	r3,r2
   85ca4:	e0bffe17 	ldw	r2,-8(fp)
   85ca8:	0085c83a 	sub	r2,zero,r2
   85cac:	18800015 	stw	r2,0(r3)
   85cb0:	00bfffc4 	movi	r2,-1
   85cb4:	00000706 	br	85cd4 <close+0xbc>
   85cb8:	0005883a 	mov	r2,zero
   85cbc:	00000506 	br	85cd4 <close+0xbc>
   85cc0:	0085bdc0 	call	85bdc <alt_get_errno>
   85cc4:	1007883a 	mov	r3,r2
   85cc8:	00801444 	movi	r2,81
   85ccc:	18800015 	stw	r2,0(r3)
   85cd0:	00bfffc4 	movi	r2,-1
   85cd4:	e037883a 	mov	sp,fp
   85cd8:	dfc00117 	ldw	ra,4(sp)
   85cdc:	df000017 	ldw	fp,0(sp)
   85ce0:	dec00204 	addi	sp,sp,8
   85ce4:	f800283a 	ret

00085ce8 <alt_dcache_flush_all>:
   85ce8:	defffe04 	addi	sp,sp,-8
   85cec:	df000115 	stw	fp,4(sp)
   85cf0:	df000104 	addi	fp,sp,4
   85cf4:	e03fff15 	stw	zero,-4(fp)
   85cf8:	00000506 	br	85d10 <alt_dcache_flush_all+0x28>
   85cfc:	e0bfff17 	ldw	r2,-4(fp)
   85d00:	1000003b 	flushd	0(r2)
   85d04:	e0bfff17 	ldw	r2,-4(fp)
   85d08:	10800804 	addi	r2,r2,32
   85d0c:	e0bfff15 	stw	r2,-4(fp)
   85d10:	e0bfff17 	ldw	r2,-4(fp)
   85d14:	10820030 	cmpltui	r2,r2,2048
   85d18:	103ff81e 	bne	r2,zero,85cfc <__alt_data_end+0xfff85cfc>
   85d1c:	0001883a 	nop
   85d20:	e037883a 	mov	sp,fp
   85d24:	df000017 	ldw	fp,0(sp)
   85d28:	dec00104 	addi	sp,sp,4
   85d2c:	f800283a 	ret

00085d30 <alt_dev_null_write>:
   85d30:	defffc04 	addi	sp,sp,-16
   85d34:	df000315 	stw	fp,12(sp)
   85d38:	df000304 	addi	fp,sp,12
   85d3c:	e13ffd15 	stw	r4,-12(fp)
   85d40:	e17ffe15 	stw	r5,-8(fp)
   85d44:	e1bfff15 	stw	r6,-4(fp)
   85d48:	e0bfff17 	ldw	r2,-4(fp)
   85d4c:	e037883a 	mov	sp,fp
   85d50:	df000017 	ldw	fp,0(sp)
   85d54:	dec00104 	addi	sp,sp,4
   85d58:	f800283a 	ret

00085d5c <alt_get_errno>:
   85d5c:	defffe04 	addi	sp,sp,-8
   85d60:	dfc00115 	stw	ra,4(sp)
   85d64:	df000015 	stw	fp,0(sp)
   85d68:	d839883a 	mov	fp,sp
   85d6c:	d0a00817 	ldw	r2,-32736(gp)
   85d70:	10000326 	beq	r2,zero,85d80 <alt_get_errno+0x24>
   85d74:	d0a00817 	ldw	r2,-32736(gp)
   85d78:	103ee83a 	callr	r2
   85d7c:	00000106 	br	85d84 <alt_get_errno+0x28>
   85d80:	d0a5aa04 	addi	r2,gp,-26968
   85d84:	e037883a 	mov	sp,fp
   85d88:	dfc00117 	ldw	ra,4(sp)
   85d8c:	df000017 	ldw	fp,0(sp)
   85d90:	dec00204 	addi	sp,sp,8
   85d94:	f800283a 	ret

00085d98 <alt_dev_llist_insert>:
   85d98:	defffa04 	addi	sp,sp,-24
   85d9c:	dfc00515 	stw	ra,20(sp)
   85da0:	df000415 	stw	fp,16(sp)
   85da4:	df000404 	addi	fp,sp,16
   85da8:	e13ffe15 	stw	r4,-8(fp)
   85dac:	e17fff15 	stw	r5,-4(fp)
   85db0:	e0bffe17 	ldw	r2,-8(fp)
   85db4:	10000326 	beq	r2,zero,85dc4 <alt_dev_llist_insert+0x2c>
   85db8:	e0bffe17 	ldw	r2,-8(fp)
   85dbc:	10800217 	ldw	r2,8(r2)
   85dc0:	1000061e 	bne	r2,zero,85ddc <alt_dev_llist_insert+0x44>
   85dc4:	0085d5c0 	call	85d5c <alt_get_errno>
   85dc8:	1007883a 	mov	r3,r2
   85dcc:	00800584 	movi	r2,22
   85dd0:	18800015 	stw	r2,0(r3)
   85dd4:	00bffa84 	movi	r2,-22
   85dd8:	00001306 	br	85e28 <alt_dev_llist_insert+0x90>
   85ddc:	e0bffe17 	ldw	r2,-8(fp)
   85de0:	e0ffff17 	ldw	r3,-4(fp)
   85de4:	e0fffc15 	stw	r3,-16(fp)
   85de8:	e0bffd15 	stw	r2,-12(fp)
   85dec:	e0bffd17 	ldw	r2,-12(fp)
   85df0:	e0fffc17 	ldw	r3,-16(fp)
   85df4:	10c00115 	stw	r3,4(r2)
   85df8:	e0bffc17 	ldw	r2,-16(fp)
   85dfc:	10c00017 	ldw	r3,0(r2)
   85e00:	e0bffd17 	ldw	r2,-12(fp)
   85e04:	10c00015 	stw	r3,0(r2)
   85e08:	e0bffc17 	ldw	r2,-16(fp)
   85e0c:	10800017 	ldw	r2,0(r2)
   85e10:	e0fffd17 	ldw	r3,-12(fp)
   85e14:	10c00115 	stw	r3,4(r2)
   85e18:	e0bffc17 	ldw	r2,-16(fp)
   85e1c:	e0fffd17 	ldw	r3,-12(fp)
   85e20:	10c00015 	stw	r3,0(r2)
   85e24:	0005883a 	mov	r2,zero
   85e28:	e037883a 	mov	sp,fp
   85e2c:	dfc00117 	ldw	ra,4(sp)
   85e30:	df000017 	ldw	fp,0(sp)
   85e34:	dec00204 	addi	sp,sp,8
   85e38:	f800283a 	ret

00085e3c <_do_ctors>:
   85e3c:	defffd04 	addi	sp,sp,-12
   85e40:	dfc00215 	stw	ra,8(sp)
   85e44:	df000115 	stw	fp,4(sp)
   85e48:	df000104 	addi	fp,sp,4
   85e4c:	00800234 	movhi	r2,8
   85e50:	109c1a04 	addi	r2,r2,28776
   85e54:	e0bfff15 	stw	r2,-4(fp)
   85e58:	00000606 	br	85e74 <_do_ctors+0x38>
   85e5c:	e0bfff17 	ldw	r2,-4(fp)
   85e60:	10800017 	ldw	r2,0(r2)
   85e64:	103ee83a 	callr	r2
   85e68:	e0bfff17 	ldw	r2,-4(fp)
   85e6c:	10bfff04 	addi	r2,r2,-4
   85e70:	e0bfff15 	stw	r2,-4(fp)
   85e74:	e0ffff17 	ldw	r3,-4(fp)
   85e78:	00800234 	movhi	r2,8
   85e7c:	109c1b04 	addi	r2,r2,28780
   85e80:	18bff62e 	bgeu	r3,r2,85e5c <__alt_data_end+0xfff85e5c>
   85e84:	0001883a 	nop
   85e88:	e037883a 	mov	sp,fp
   85e8c:	dfc00117 	ldw	ra,4(sp)
   85e90:	df000017 	ldw	fp,0(sp)
   85e94:	dec00204 	addi	sp,sp,8
   85e98:	f800283a 	ret

00085e9c <_do_dtors>:
   85e9c:	defffd04 	addi	sp,sp,-12
   85ea0:	dfc00215 	stw	ra,8(sp)
   85ea4:	df000115 	stw	fp,4(sp)
   85ea8:	df000104 	addi	fp,sp,4
   85eac:	00800234 	movhi	r2,8
   85eb0:	109c1a04 	addi	r2,r2,28776
   85eb4:	e0bfff15 	stw	r2,-4(fp)
   85eb8:	00000606 	br	85ed4 <_do_dtors+0x38>
   85ebc:	e0bfff17 	ldw	r2,-4(fp)
   85ec0:	10800017 	ldw	r2,0(r2)
   85ec4:	103ee83a 	callr	r2
   85ec8:	e0bfff17 	ldw	r2,-4(fp)
   85ecc:	10bfff04 	addi	r2,r2,-4
   85ed0:	e0bfff15 	stw	r2,-4(fp)
   85ed4:	e0ffff17 	ldw	r3,-4(fp)
   85ed8:	00800234 	movhi	r2,8
   85edc:	109c1b04 	addi	r2,r2,28780
   85ee0:	18bff62e 	bgeu	r3,r2,85ebc <__alt_data_end+0xfff85ebc>
   85ee4:	0001883a 	nop
   85ee8:	e037883a 	mov	sp,fp
   85eec:	dfc00117 	ldw	ra,4(sp)
   85ef0:	df000017 	ldw	fp,0(sp)
   85ef4:	dec00204 	addi	sp,sp,8
   85ef8:	f800283a 	ret

00085efc <alt_icache_flush_all>:
   85efc:	defffe04 	addi	sp,sp,-8
   85f00:	dfc00115 	stw	ra,4(sp)
   85f04:	df000015 	stw	fp,0(sp)
   85f08:	d839883a 	mov	fp,sp
   85f0c:	01440004 	movi	r5,4096
   85f10:	0009883a 	mov	r4,zero
   85f14:	00869cc0 	call	869cc <alt_icache_flush>
   85f18:	0001883a 	nop
   85f1c:	e037883a 	mov	sp,fp
   85f20:	dfc00117 	ldw	ra,4(sp)
   85f24:	df000017 	ldw	fp,0(sp)
   85f28:	dec00204 	addi	sp,sp,8
   85f2c:	f800283a 	ret

00085f30 <alt_ic_isr_register>:
   85f30:	defff904 	addi	sp,sp,-28
   85f34:	dfc00615 	stw	ra,24(sp)
   85f38:	df000515 	stw	fp,20(sp)
   85f3c:	df000504 	addi	fp,sp,20
   85f40:	e13ffc15 	stw	r4,-16(fp)
   85f44:	e17ffd15 	stw	r5,-12(fp)
   85f48:	e1bffe15 	stw	r6,-8(fp)
   85f4c:	e1ffff15 	stw	r7,-4(fp)
   85f50:	e0800217 	ldw	r2,8(fp)
   85f54:	d8800015 	stw	r2,0(sp)
   85f58:	e1ffff17 	ldw	r7,-4(fp)
   85f5c:	e1bffe17 	ldw	r6,-8(fp)
   85f60:	e17ffd17 	ldw	r5,-12(fp)
   85f64:	e13ffc17 	ldw	r4,-16(fp)
   85f68:	00860e00 	call	860e0 <alt_iic_isr_register>
   85f6c:	e037883a 	mov	sp,fp
   85f70:	dfc00117 	ldw	ra,4(sp)
   85f74:	df000017 	ldw	fp,0(sp)
   85f78:	dec00204 	addi	sp,sp,8
   85f7c:	f800283a 	ret

00085f80 <alt_ic_irq_enable>:
   85f80:	defff904 	addi	sp,sp,-28
   85f84:	df000615 	stw	fp,24(sp)
   85f88:	df000604 	addi	fp,sp,24
   85f8c:	e13ffe15 	stw	r4,-8(fp)
   85f90:	e17fff15 	stw	r5,-4(fp)
   85f94:	e0bfff17 	ldw	r2,-4(fp)
   85f98:	e0bffa15 	stw	r2,-24(fp)
   85f9c:	0005303a 	rdctl	r2,status
   85fa0:	e0bffb15 	stw	r2,-20(fp)
   85fa4:	e0fffb17 	ldw	r3,-20(fp)
   85fa8:	00bfff84 	movi	r2,-2
   85fac:	1884703a 	and	r2,r3,r2
   85fb0:	1001703a 	wrctl	status,r2
   85fb4:	e0bffb17 	ldw	r2,-20(fp)
   85fb8:	e0bffc15 	stw	r2,-16(fp)
   85fbc:	00c00044 	movi	r3,1
   85fc0:	e0bffa17 	ldw	r2,-24(fp)
   85fc4:	1884983a 	sll	r2,r3,r2
   85fc8:	1007883a 	mov	r3,r2
   85fcc:	d0a5a617 	ldw	r2,-26984(gp)
   85fd0:	1884b03a 	or	r2,r3,r2
   85fd4:	d0a5a615 	stw	r2,-26984(gp)
   85fd8:	d0a5a617 	ldw	r2,-26984(gp)
   85fdc:	100170fa 	wrctl	ienable,r2
   85fe0:	e0bffc17 	ldw	r2,-16(fp)
   85fe4:	e0bffd15 	stw	r2,-12(fp)
   85fe8:	e0bffd17 	ldw	r2,-12(fp)
   85fec:	1001703a 	wrctl	status,r2
   85ff0:	0005883a 	mov	r2,zero
   85ff4:	0001883a 	nop
   85ff8:	e037883a 	mov	sp,fp
   85ffc:	df000017 	ldw	fp,0(sp)
   86000:	dec00104 	addi	sp,sp,4
   86004:	f800283a 	ret

00086008 <alt_ic_irq_disable>:
   86008:	defff904 	addi	sp,sp,-28
   8600c:	df000615 	stw	fp,24(sp)
   86010:	df000604 	addi	fp,sp,24
   86014:	e13ffe15 	stw	r4,-8(fp)
   86018:	e17fff15 	stw	r5,-4(fp)
   8601c:	e0bfff17 	ldw	r2,-4(fp)
   86020:	e0bffa15 	stw	r2,-24(fp)
   86024:	0005303a 	rdctl	r2,status
   86028:	e0bffb15 	stw	r2,-20(fp)
   8602c:	e0fffb17 	ldw	r3,-20(fp)
   86030:	00bfff84 	movi	r2,-2
   86034:	1884703a 	and	r2,r3,r2
   86038:	1001703a 	wrctl	status,r2
   8603c:	e0bffb17 	ldw	r2,-20(fp)
   86040:	e0bffc15 	stw	r2,-16(fp)
   86044:	00c00044 	movi	r3,1
   86048:	e0bffa17 	ldw	r2,-24(fp)
   8604c:	1884983a 	sll	r2,r3,r2
   86050:	0084303a 	nor	r2,zero,r2
   86054:	1007883a 	mov	r3,r2
   86058:	d0a5a617 	ldw	r2,-26984(gp)
   8605c:	1884703a 	and	r2,r3,r2
   86060:	d0a5a615 	stw	r2,-26984(gp)
   86064:	d0a5a617 	ldw	r2,-26984(gp)
   86068:	100170fa 	wrctl	ienable,r2
   8606c:	e0bffc17 	ldw	r2,-16(fp)
   86070:	e0bffd15 	stw	r2,-12(fp)
   86074:	e0bffd17 	ldw	r2,-12(fp)
   86078:	1001703a 	wrctl	status,r2
   8607c:	0005883a 	mov	r2,zero
   86080:	0001883a 	nop
   86084:	e037883a 	mov	sp,fp
   86088:	df000017 	ldw	fp,0(sp)
   8608c:	dec00104 	addi	sp,sp,4
   86090:	f800283a 	ret

00086094 <alt_ic_irq_enabled>:
   86094:	defffc04 	addi	sp,sp,-16
   86098:	df000315 	stw	fp,12(sp)
   8609c:	df000304 	addi	fp,sp,12
   860a0:	e13ffe15 	stw	r4,-8(fp)
   860a4:	e17fff15 	stw	r5,-4(fp)
   860a8:	000530fa 	rdctl	r2,ienable
   860ac:	e0bffd15 	stw	r2,-12(fp)
   860b0:	00c00044 	movi	r3,1
   860b4:	e0bfff17 	ldw	r2,-4(fp)
   860b8:	1884983a 	sll	r2,r3,r2
   860bc:	1007883a 	mov	r3,r2
   860c0:	e0bffd17 	ldw	r2,-12(fp)
   860c4:	1884703a 	and	r2,r3,r2
   860c8:	1004c03a 	cmpne	r2,r2,zero
   860cc:	10803fcc 	andi	r2,r2,255
   860d0:	e037883a 	mov	sp,fp
   860d4:	df000017 	ldw	fp,0(sp)
   860d8:	dec00104 	addi	sp,sp,4
   860dc:	f800283a 	ret

000860e0 <alt_iic_isr_register>:
   860e0:	defff504 	addi	sp,sp,-44
   860e4:	dfc00a15 	stw	ra,40(sp)
   860e8:	df000915 	stw	fp,36(sp)
   860ec:	df000904 	addi	fp,sp,36
   860f0:	e13ffc15 	stw	r4,-16(fp)
   860f4:	e17ffd15 	stw	r5,-12(fp)
   860f8:	e1bffe15 	stw	r6,-8(fp)
   860fc:	e1ffff15 	stw	r7,-4(fp)
   86100:	00bffa84 	movi	r2,-22
   86104:	e0bff715 	stw	r2,-36(fp)
   86108:	e0bffd17 	ldw	r2,-12(fp)
   8610c:	e0bff815 	stw	r2,-32(fp)
   86110:	e0bff817 	ldw	r2,-32(fp)
   86114:	10800808 	cmpgei	r2,r2,32
   86118:	1000271e 	bne	r2,zero,861b8 <alt_iic_isr_register+0xd8>
   8611c:	0005303a 	rdctl	r2,status
   86120:	e0bffb15 	stw	r2,-20(fp)
   86124:	e0fffb17 	ldw	r3,-20(fp)
   86128:	00bfff84 	movi	r2,-2
   8612c:	1884703a 	and	r2,r3,r2
   86130:	1001703a 	wrctl	status,r2
   86134:	e0bffb17 	ldw	r2,-20(fp)
   86138:	e0bffa15 	stw	r2,-24(fp)
   8613c:	00800274 	movhi	r2,9
   86140:	10a7a104 	addi	r2,r2,-24956
   86144:	e0fff817 	ldw	r3,-32(fp)
   86148:	180690fa 	slli	r3,r3,3
   8614c:	10c5883a 	add	r2,r2,r3
   86150:	e0fffe17 	ldw	r3,-8(fp)
   86154:	10c00015 	stw	r3,0(r2)
   86158:	00800274 	movhi	r2,9
   8615c:	10a7a104 	addi	r2,r2,-24956
   86160:	e0fff817 	ldw	r3,-32(fp)
   86164:	180690fa 	slli	r3,r3,3
   86168:	10c5883a 	add	r2,r2,r3
   8616c:	10800104 	addi	r2,r2,4
   86170:	e0ffff17 	ldw	r3,-4(fp)
   86174:	10c00015 	stw	r3,0(r2)
   86178:	e0bffe17 	ldw	r2,-8(fp)
   8617c:	10000526 	beq	r2,zero,86194 <alt_iic_isr_register+0xb4>
   86180:	e0bff817 	ldw	r2,-32(fp)
   86184:	100b883a 	mov	r5,r2
   86188:	e13ffc17 	ldw	r4,-16(fp)
   8618c:	0085f800 	call	85f80 <alt_ic_irq_enable>
   86190:	00000406 	br	861a4 <alt_iic_isr_register+0xc4>
   86194:	e0bff817 	ldw	r2,-32(fp)
   86198:	100b883a 	mov	r5,r2
   8619c:	e13ffc17 	ldw	r4,-16(fp)
   861a0:	00860080 	call	86008 <alt_ic_irq_disable>
   861a4:	e0bff715 	stw	r2,-36(fp)
   861a8:	e0bffa17 	ldw	r2,-24(fp)
   861ac:	e0bff915 	stw	r2,-28(fp)
   861b0:	e0bff917 	ldw	r2,-28(fp)
   861b4:	1001703a 	wrctl	status,r2
   861b8:	e0bff717 	ldw	r2,-36(fp)
   861bc:	e037883a 	mov	sp,fp
   861c0:	dfc00117 	ldw	ra,4(sp)
   861c4:	df000017 	ldw	fp,0(sp)
   861c8:	dec00204 	addi	sp,sp,8
   861cc:	f800283a 	ret

000861d0 <alt_open_fd>:
   861d0:	defff904 	addi	sp,sp,-28
   861d4:	dfc00615 	stw	ra,24(sp)
   861d8:	df000515 	stw	fp,20(sp)
   861dc:	df000504 	addi	fp,sp,20
   861e0:	e13ffc15 	stw	r4,-16(fp)
   861e4:	e17ffd15 	stw	r5,-12(fp)
   861e8:	e1bffe15 	stw	r6,-8(fp)
   861ec:	e1ffff15 	stw	r7,-4(fp)
   861f0:	e1bfff17 	ldw	r6,-4(fp)
   861f4:	e17ffe17 	ldw	r5,-8(fp)
   861f8:	e13ffd17 	ldw	r4,-12(fp)
   861fc:	00864100 	call	86410 <open>
   86200:	e0bffb15 	stw	r2,-20(fp)
   86204:	e0bffb17 	ldw	r2,-20(fp)
   86208:	10001c16 	blt	r2,zero,8627c <alt_open_fd+0xac>
   8620c:	00800274 	movhi	r2,9
   86210:	10a19604 	addi	r2,r2,-31144
   86214:	e0fffb17 	ldw	r3,-20(fp)
   86218:	18c00324 	muli	r3,r3,12
   8621c:	10c5883a 	add	r2,r2,r3
   86220:	10c00017 	ldw	r3,0(r2)
   86224:	e0bffc17 	ldw	r2,-16(fp)
   86228:	10c00015 	stw	r3,0(r2)
   8622c:	00800274 	movhi	r2,9
   86230:	10a19604 	addi	r2,r2,-31144
   86234:	e0fffb17 	ldw	r3,-20(fp)
   86238:	18c00324 	muli	r3,r3,12
   8623c:	10c5883a 	add	r2,r2,r3
   86240:	10800104 	addi	r2,r2,4
   86244:	10c00017 	ldw	r3,0(r2)
   86248:	e0bffc17 	ldw	r2,-16(fp)
   8624c:	10c00115 	stw	r3,4(r2)
   86250:	00800274 	movhi	r2,9
   86254:	10a19604 	addi	r2,r2,-31144
   86258:	e0fffb17 	ldw	r3,-20(fp)
   8625c:	18c00324 	muli	r3,r3,12
   86260:	10c5883a 	add	r2,r2,r3
   86264:	10800204 	addi	r2,r2,8
   86268:	10c00017 	ldw	r3,0(r2)
   8626c:	e0bffc17 	ldw	r2,-16(fp)
   86270:	10c00215 	stw	r3,8(r2)
   86274:	e13ffb17 	ldw	r4,-20(fp)
   86278:	00865640 	call	86564 <alt_release_fd>
   8627c:	0001883a 	nop
   86280:	e037883a 	mov	sp,fp
   86284:	dfc00117 	ldw	ra,4(sp)
   86288:	df000017 	ldw	fp,0(sp)
   8628c:	dec00204 	addi	sp,sp,8
   86290:	f800283a 	ret

00086294 <alt_io_redirect>:
   86294:	defffb04 	addi	sp,sp,-20
   86298:	dfc00415 	stw	ra,16(sp)
   8629c:	df000315 	stw	fp,12(sp)
   862a0:	df000304 	addi	fp,sp,12
   862a4:	e13ffd15 	stw	r4,-12(fp)
   862a8:	e17ffe15 	stw	r5,-8(fp)
   862ac:	e1bfff15 	stw	r6,-4(fp)
   862b0:	01c07fc4 	movi	r7,511
   862b4:	01800044 	movi	r6,1
   862b8:	e17ffd17 	ldw	r5,-12(fp)
   862bc:	01000274 	movhi	r4,9
   862c0:	21219904 	addi	r4,r4,-31132
   862c4:	00861d00 	call	861d0 <alt_open_fd>
   862c8:	01c07fc4 	movi	r7,511
   862cc:	000d883a 	mov	r6,zero
   862d0:	e17ffe17 	ldw	r5,-8(fp)
   862d4:	01000274 	movhi	r4,9
   862d8:	21219604 	addi	r4,r4,-31144
   862dc:	00861d00 	call	861d0 <alt_open_fd>
   862e0:	01c07fc4 	movi	r7,511
   862e4:	01800044 	movi	r6,1
   862e8:	e17fff17 	ldw	r5,-4(fp)
   862ec:	01000274 	movhi	r4,9
   862f0:	21219c04 	addi	r4,r4,-31120
   862f4:	00861d00 	call	861d0 <alt_open_fd>
   862f8:	0001883a 	nop
   862fc:	e037883a 	mov	sp,fp
   86300:	dfc00117 	ldw	ra,4(sp)
   86304:	df000017 	ldw	fp,0(sp)
   86308:	dec00204 	addi	sp,sp,8
   8630c:	f800283a 	ret

00086310 <alt_get_errno>:
   86310:	defffe04 	addi	sp,sp,-8
   86314:	dfc00115 	stw	ra,4(sp)
   86318:	df000015 	stw	fp,0(sp)
   8631c:	d839883a 	mov	fp,sp
   86320:	d0a00817 	ldw	r2,-32736(gp)
   86324:	10000326 	beq	r2,zero,86334 <alt_get_errno+0x24>
   86328:	d0a00817 	ldw	r2,-32736(gp)
   8632c:	103ee83a 	callr	r2
   86330:	00000106 	br	86338 <alt_get_errno+0x28>
   86334:	d0a5aa04 	addi	r2,gp,-26968
   86338:	e037883a 	mov	sp,fp
   8633c:	dfc00117 	ldw	ra,4(sp)
   86340:	df000017 	ldw	fp,0(sp)
   86344:	dec00204 	addi	sp,sp,8
   86348:	f800283a 	ret

0008634c <alt_file_locked>:
   8634c:	defffd04 	addi	sp,sp,-12
   86350:	df000215 	stw	fp,8(sp)
   86354:	df000204 	addi	fp,sp,8
   86358:	e13fff15 	stw	r4,-4(fp)
   8635c:	e0bfff17 	ldw	r2,-4(fp)
   86360:	10800217 	ldw	r2,8(r2)
   86364:	10d00034 	orhi	r3,r2,16384
   86368:	e0bfff17 	ldw	r2,-4(fp)
   8636c:	10c00215 	stw	r3,8(r2)
   86370:	e03ffe15 	stw	zero,-8(fp)
   86374:	00001d06 	br	863ec <alt_file_locked+0xa0>
   86378:	00800274 	movhi	r2,9
   8637c:	10a19604 	addi	r2,r2,-31144
   86380:	e0fffe17 	ldw	r3,-8(fp)
   86384:	18c00324 	muli	r3,r3,12
   86388:	10c5883a 	add	r2,r2,r3
   8638c:	10c00017 	ldw	r3,0(r2)
   86390:	e0bfff17 	ldw	r2,-4(fp)
   86394:	10800017 	ldw	r2,0(r2)
   86398:	1880111e 	bne	r3,r2,863e0 <alt_file_locked+0x94>
   8639c:	00800274 	movhi	r2,9
   863a0:	10a19604 	addi	r2,r2,-31144
   863a4:	e0fffe17 	ldw	r3,-8(fp)
   863a8:	18c00324 	muli	r3,r3,12
   863ac:	10c5883a 	add	r2,r2,r3
   863b0:	10800204 	addi	r2,r2,8
   863b4:	10800017 	ldw	r2,0(r2)
   863b8:	1000090e 	bge	r2,zero,863e0 <alt_file_locked+0x94>
   863bc:	e0bffe17 	ldw	r2,-8(fp)
   863c0:	10c00324 	muli	r3,r2,12
   863c4:	00800274 	movhi	r2,9
   863c8:	10a19604 	addi	r2,r2,-31144
   863cc:	1887883a 	add	r3,r3,r2
   863d0:	e0bfff17 	ldw	r2,-4(fp)
   863d4:	18800226 	beq	r3,r2,863e0 <alt_file_locked+0x94>
   863d8:	00bffcc4 	movi	r2,-13
   863dc:	00000806 	br	86400 <alt_file_locked+0xb4>
   863e0:	e0bffe17 	ldw	r2,-8(fp)
   863e4:	10800044 	addi	r2,r2,1
   863e8:	e0bffe15 	stw	r2,-8(fp)
   863ec:	d0a00717 	ldw	r2,-32740(gp)
   863f0:	1007883a 	mov	r3,r2
   863f4:	e0bffe17 	ldw	r2,-8(fp)
   863f8:	18bfdf2e 	bgeu	r3,r2,86378 <__alt_data_end+0xfff86378>
   863fc:	0005883a 	mov	r2,zero
   86400:	e037883a 	mov	sp,fp
   86404:	df000017 	ldw	fp,0(sp)
   86408:	dec00104 	addi	sp,sp,4
   8640c:	f800283a 	ret

00086410 <open>:
   86410:	defff604 	addi	sp,sp,-40
   86414:	dfc00915 	stw	ra,36(sp)
   86418:	df000815 	stw	fp,32(sp)
   8641c:	df000804 	addi	fp,sp,32
   86420:	e13ffd15 	stw	r4,-12(fp)
   86424:	e17ffe15 	stw	r5,-8(fp)
   86428:	e1bfff15 	stw	r6,-4(fp)
   8642c:	00bfffc4 	movi	r2,-1
   86430:	e0bff915 	stw	r2,-28(fp)
   86434:	00bffb44 	movi	r2,-19
   86438:	e0bffa15 	stw	r2,-24(fp)
   8643c:	e03ffb15 	stw	zero,-20(fp)
   86440:	d1600504 	addi	r5,gp,-32748
   86444:	e13ffd17 	ldw	r4,-12(fp)
   86448:	00867900 	call	86790 <alt_find_dev>
   8644c:	e0bff815 	stw	r2,-32(fp)
   86450:	e0bff817 	ldw	r2,-32(fp)
   86454:	1000051e 	bne	r2,zero,8646c <open+0x5c>
   86458:	e13ffd17 	ldw	r4,-12(fp)
   8645c:	00868200 	call	86820 <alt_find_file>
   86460:	e0bff815 	stw	r2,-32(fp)
   86464:	00800044 	movi	r2,1
   86468:	e0bffb15 	stw	r2,-20(fp)
   8646c:	e0bff817 	ldw	r2,-32(fp)
   86470:	10002926 	beq	r2,zero,86518 <open+0x108>
   86474:	e13ff817 	ldw	r4,-32(fp)
   86478:	00869280 	call	86928 <alt_get_fd>
   8647c:	e0bff915 	stw	r2,-28(fp)
   86480:	e0bff917 	ldw	r2,-28(fp)
   86484:	1000030e 	bge	r2,zero,86494 <open+0x84>
   86488:	e0bff917 	ldw	r2,-28(fp)
   8648c:	e0bffa15 	stw	r2,-24(fp)
   86490:	00002306 	br	86520 <open+0x110>
   86494:	e0bff917 	ldw	r2,-28(fp)
   86498:	10c00324 	muli	r3,r2,12
   8649c:	00800274 	movhi	r2,9
   864a0:	10a19604 	addi	r2,r2,-31144
   864a4:	1885883a 	add	r2,r3,r2
   864a8:	e0bffc15 	stw	r2,-16(fp)
   864ac:	e0fffe17 	ldw	r3,-8(fp)
   864b0:	00900034 	movhi	r2,16384
   864b4:	10bfffc4 	addi	r2,r2,-1
   864b8:	1886703a 	and	r3,r3,r2
   864bc:	e0bffc17 	ldw	r2,-16(fp)
   864c0:	10c00215 	stw	r3,8(r2)
   864c4:	e0bffb17 	ldw	r2,-20(fp)
   864c8:	1000051e 	bne	r2,zero,864e0 <open+0xd0>
   864cc:	e13ffc17 	ldw	r4,-16(fp)
   864d0:	008634c0 	call	8634c <alt_file_locked>
   864d4:	e0bffa15 	stw	r2,-24(fp)
   864d8:	e0bffa17 	ldw	r2,-24(fp)
   864dc:	10001016 	blt	r2,zero,86520 <open+0x110>
   864e0:	e0bff817 	ldw	r2,-32(fp)
   864e4:	10800317 	ldw	r2,12(r2)
   864e8:	10000826 	beq	r2,zero,8650c <open+0xfc>
   864ec:	e0bff817 	ldw	r2,-32(fp)
   864f0:	10800317 	ldw	r2,12(r2)
   864f4:	e1ffff17 	ldw	r7,-4(fp)
   864f8:	e1bffe17 	ldw	r6,-8(fp)
   864fc:	e17ffd17 	ldw	r5,-12(fp)
   86500:	e13ffc17 	ldw	r4,-16(fp)
   86504:	103ee83a 	callr	r2
   86508:	00000106 	br	86510 <open+0x100>
   8650c:	0005883a 	mov	r2,zero
   86510:	e0bffa15 	stw	r2,-24(fp)
   86514:	00000206 	br	86520 <open+0x110>
   86518:	00bffb44 	movi	r2,-19
   8651c:	e0bffa15 	stw	r2,-24(fp)
   86520:	e0bffa17 	ldw	r2,-24(fp)
   86524:	1000090e 	bge	r2,zero,8654c <open+0x13c>
   86528:	e13ff917 	ldw	r4,-28(fp)
   8652c:	00865640 	call	86564 <alt_release_fd>
   86530:	00863100 	call	86310 <alt_get_errno>
   86534:	1007883a 	mov	r3,r2
   86538:	e0bffa17 	ldw	r2,-24(fp)
   8653c:	0085c83a 	sub	r2,zero,r2
   86540:	18800015 	stw	r2,0(r3)
   86544:	00bfffc4 	movi	r2,-1
   86548:	00000106 	br	86550 <open+0x140>
   8654c:	e0bff917 	ldw	r2,-28(fp)
   86550:	e037883a 	mov	sp,fp
   86554:	dfc00117 	ldw	ra,4(sp)
   86558:	df000017 	ldw	fp,0(sp)
   8655c:	dec00204 	addi	sp,sp,8
   86560:	f800283a 	ret

00086564 <alt_release_fd>:
   86564:	defffe04 	addi	sp,sp,-8
   86568:	df000115 	stw	fp,4(sp)
   8656c:	df000104 	addi	fp,sp,4
   86570:	e13fff15 	stw	r4,-4(fp)
   86574:	e0bfff17 	ldw	r2,-4(fp)
   86578:	108000d0 	cmplti	r2,r2,3
   8657c:	10000d1e 	bne	r2,zero,865b4 <alt_release_fd+0x50>
   86580:	00800274 	movhi	r2,9
   86584:	10a19604 	addi	r2,r2,-31144
   86588:	e0ffff17 	ldw	r3,-4(fp)
   8658c:	18c00324 	muli	r3,r3,12
   86590:	10c5883a 	add	r2,r2,r3
   86594:	10800204 	addi	r2,r2,8
   86598:	10000015 	stw	zero,0(r2)
   8659c:	00800274 	movhi	r2,9
   865a0:	10a19604 	addi	r2,r2,-31144
   865a4:	e0ffff17 	ldw	r3,-4(fp)
   865a8:	18c00324 	muli	r3,r3,12
   865ac:	10c5883a 	add	r2,r2,r3
   865b0:	10000015 	stw	zero,0(r2)
   865b4:	0001883a 	nop
   865b8:	e037883a 	mov	sp,fp
   865bc:	df000017 	ldw	fp,0(sp)
   865c0:	dec00104 	addi	sp,sp,4
   865c4:	f800283a 	ret

000865c8 <alt_alarm_stop>:
   865c8:	defffa04 	addi	sp,sp,-24
   865cc:	df000515 	stw	fp,20(sp)
   865d0:	df000504 	addi	fp,sp,20
   865d4:	e13fff15 	stw	r4,-4(fp)
   865d8:	0005303a 	rdctl	r2,status
   865dc:	e0bffc15 	stw	r2,-16(fp)
   865e0:	e0fffc17 	ldw	r3,-16(fp)
   865e4:	00bfff84 	movi	r2,-2
   865e8:	1884703a 	and	r2,r3,r2
   865ec:	1001703a 	wrctl	status,r2
   865f0:	e0bffc17 	ldw	r2,-16(fp)
   865f4:	e0bffb15 	stw	r2,-20(fp)
   865f8:	e0bfff17 	ldw	r2,-4(fp)
   865fc:	e0bffd15 	stw	r2,-12(fp)
   86600:	e0bffd17 	ldw	r2,-12(fp)
   86604:	10800017 	ldw	r2,0(r2)
   86608:	e0fffd17 	ldw	r3,-12(fp)
   8660c:	18c00117 	ldw	r3,4(r3)
   86610:	10c00115 	stw	r3,4(r2)
   86614:	e0bffd17 	ldw	r2,-12(fp)
   86618:	10800117 	ldw	r2,4(r2)
   8661c:	e0fffd17 	ldw	r3,-12(fp)
   86620:	18c00017 	ldw	r3,0(r3)
   86624:	10c00015 	stw	r3,0(r2)
   86628:	e0bffd17 	ldw	r2,-12(fp)
   8662c:	e0fffd17 	ldw	r3,-12(fp)
   86630:	10c00115 	stw	r3,4(r2)
   86634:	e0bffd17 	ldw	r2,-12(fp)
   86638:	e0fffd17 	ldw	r3,-12(fp)
   8663c:	10c00015 	stw	r3,0(r2)
   86640:	e0bffb17 	ldw	r2,-20(fp)
   86644:	e0bffe15 	stw	r2,-8(fp)
   86648:	e0bffe17 	ldw	r2,-8(fp)
   8664c:	1001703a 	wrctl	status,r2
   86650:	0001883a 	nop
   86654:	e037883a 	mov	sp,fp
   86658:	df000017 	ldw	fp,0(sp)
   8665c:	dec00104 	addi	sp,sp,4
   86660:	f800283a 	ret

00086664 <alt_tick>:
   86664:	defffb04 	addi	sp,sp,-20
   86668:	dfc00415 	stw	ra,16(sp)
   8666c:	df000315 	stw	fp,12(sp)
   86670:	df000304 	addi	fp,sp,12
   86674:	d0a00a17 	ldw	r2,-32728(gp)
   86678:	e0bffd15 	stw	r2,-12(fp)
   8667c:	d0a5a817 	ldw	r2,-26976(gp)
   86680:	10800044 	addi	r2,r2,1
   86684:	d0a5a815 	stw	r2,-26976(gp)
   86688:	00002e06 	br	86744 <alt_tick+0xe0>
   8668c:	e0bffd17 	ldw	r2,-12(fp)
   86690:	10800017 	ldw	r2,0(r2)
   86694:	e0bffe15 	stw	r2,-8(fp)
   86698:	e0bffd17 	ldw	r2,-12(fp)
   8669c:	10800403 	ldbu	r2,16(r2)
   866a0:	10803fcc 	andi	r2,r2,255
   866a4:	10000426 	beq	r2,zero,866b8 <alt_tick+0x54>
   866a8:	d0a5a817 	ldw	r2,-26976(gp)
   866ac:	1000021e 	bne	r2,zero,866b8 <alt_tick+0x54>
   866b0:	e0bffd17 	ldw	r2,-12(fp)
   866b4:	10000405 	stb	zero,16(r2)
   866b8:	e0bffd17 	ldw	r2,-12(fp)
   866bc:	10800217 	ldw	r2,8(r2)
   866c0:	d0e5a817 	ldw	r3,-26976(gp)
   866c4:	18801d36 	bltu	r3,r2,8673c <alt_tick+0xd8>
   866c8:	e0bffd17 	ldw	r2,-12(fp)
   866cc:	10800403 	ldbu	r2,16(r2)
   866d0:	10803fcc 	andi	r2,r2,255
   866d4:	1000191e 	bne	r2,zero,8673c <alt_tick+0xd8>
   866d8:	e0bffd17 	ldw	r2,-12(fp)
   866dc:	10800317 	ldw	r2,12(r2)
   866e0:	e0fffd17 	ldw	r3,-12(fp)
   866e4:	18c00517 	ldw	r3,20(r3)
   866e8:	1809883a 	mov	r4,r3
   866ec:	103ee83a 	callr	r2
   866f0:	e0bfff15 	stw	r2,-4(fp)
   866f4:	e0bfff17 	ldw	r2,-4(fp)
   866f8:	1000031e 	bne	r2,zero,86708 <alt_tick+0xa4>
   866fc:	e13ffd17 	ldw	r4,-12(fp)
   86700:	00865c80 	call	865c8 <alt_alarm_stop>
   86704:	00000d06 	br	8673c <alt_tick+0xd8>
   86708:	e0bffd17 	ldw	r2,-12(fp)
   8670c:	10c00217 	ldw	r3,8(r2)
   86710:	e0bfff17 	ldw	r2,-4(fp)
   86714:	1887883a 	add	r3,r3,r2
   86718:	e0bffd17 	ldw	r2,-12(fp)
   8671c:	10c00215 	stw	r3,8(r2)
   86720:	e0bffd17 	ldw	r2,-12(fp)
   86724:	10c00217 	ldw	r3,8(r2)
   86728:	d0a5a817 	ldw	r2,-26976(gp)
   8672c:	1880032e 	bgeu	r3,r2,8673c <alt_tick+0xd8>
   86730:	e0bffd17 	ldw	r2,-12(fp)
   86734:	00c00044 	movi	r3,1
   86738:	10c00405 	stb	r3,16(r2)
   8673c:	e0bffe17 	ldw	r2,-8(fp)
   86740:	e0bffd15 	stw	r2,-12(fp)
   86744:	e0fffd17 	ldw	r3,-12(fp)
   86748:	d0a00a04 	addi	r2,gp,-32728
   8674c:	18bfcf1e 	bne	r3,r2,8668c <__alt_data_end+0xfff8668c>
   86750:	0001883a 	nop
   86754:	0001883a 	nop
   86758:	e037883a 	mov	sp,fp
   8675c:	dfc00117 	ldw	ra,4(sp)
   86760:	df000017 	ldw	fp,0(sp)
   86764:	dec00204 	addi	sp,sp,8
   86768:	f800283a 	ret

0008676c <altera_nios2_gen2_irq_init>:
   8676c:	deffff04 	addi	sp,sp,-4
   86770:	df000015 	stw	fp,0(sp)
   86774:	d839883a 	mov	fp,sp
   86778:	000170fa 	wrctl	ienable,zero
   8677c:	0001883a 	nop
   86780:	e037883a 	mov	sp,fp
   86784:	df000017 	ldw	fp,0(sp)
   86788:	dec00104 	addi	sp,sp,4
   8678c:	f800283a 	ret

00086790 <alt_find_dev>:
   86790:	defffa04 	addi	sp,sp,-24
   86794:	dfc00515 	stw	ra,20(sp)
   86798:	df000415 	stw	fp,16(sp)
   8679c:	df000404 	addi	fp,sp,16
   867a0:	e13ffe15 	stw	r4,-8(fp)
   867a4:	e17fff15 	stw	r5,-4(fp)
   867a8:	e0bfff17 	ldw	r2,-4(fp)
   867ac:	10800017 	ldw	r2,0(r2)
   867b0:	e0bffc15 	stw	r2,-16(fp)
   867b4:	e13ffe17 	ldw	r4,-8(fp)
   867b8:	0086d080 	call	86d08 <strlen>
   867bc:	10800044 	addi	r2,r2,1
   867c0:	e0bffd15 	stw	r2,-12(fp)
   867c4:	00000d06 	br	867fc <alt_find_dev+0x6c>
   867c8:	e0bffc17 	ldw	r2,-16(fp)
   867cc:	10800217 	ldw	r2,8(r2)
   867d0:	e0fffd17 	ldw	r3,-12(fp)
   867d4:	180d883a 	mov	r6,r3
   867d8:	e17ffe17 	ldw	r5,-8(fp)
   867dc:	1009883a 	mov	r4,r2
   867e0:	0086b440 	call	86b44 <memcmp>
   867e4:	1000021e 	bne	r2,zero,867f0 <alt_find_dev+0x60>
   867e8:	e0bffc17 	ldw	r2,-16(fp)
   867ec:	00000706 	br	8680c <alt_find_dev+0x7c>
   867f0:	e0bffc17 	ldw	r2,-16(fp)
   867f4:	10800017 	ldw	r2,0(r2)
   867f8:	e0bffc15 	stw	r2,-16(fp)
   867fc:	e0fffc17 	ldw	r3,-16(fp)
   86800:	e0bfff17 	ldw	r2,-4(fp)
   86804:	18bff01e 	bne	r3,r2,867c8 <__alt_data_end+0xfff867c8>
   86808:	0005883a 	mov	r2,zero
   8680c:	e037883a 	mov	sp,fp
   86810:	dfc00117 	ldw	ra,4(sp)
   86814:	df000017 	ldw	fp,0(sp)
   86818:	dec00204 	addi	sp,sp,8
   8681c:	f800283a 	ret

00086820 <alt_find_file>:
   86820:	defffb04 	addi	sp,sp,-20
   86824:	dfc00415 	stw	ra,16(sp)
   86828:	df000315 	stw	fp,12(sp)
   8682c:	df000304 	addi	fp,sp,12
   86830:	e13fff15 	stw	r4,-4(fp)
   86834:	d0a00317 	ldw	r2,-32756(gp)
   86838:	e0bffd15 	stw	r2,-12(fp)
   8683c:	00003106 	br	86904 <alt_find_file+0xe4>
   86840:	e0bffd17 	ldw	r2,-12(fp)
   86844:	10800217 	ldw	r2,8(r2)
   86848:	1009883a 	mov	r4,r2
   8684c:	0086d080 	call	86d08 <strlen>
   86850:	e0bffe15 	stw	r2,-8(fp)
   86854:	e0bffd17 	ldw	r2,-12(fp)
   86858:	10c00217 	ldw	r3,8(r2)
   8685c:	e0bffe17 	ldw	r2,-8(fp)
   86860:	10bfffc4 	addi	r2,r2,-1
   86864:	1885883a 	add	r2,r3,r2
   86868:	10800003 	ldbu	r2,0(r2)
   8686c:	10803fcc 	andi	r2,r2,255
   86870:	1080201c 	xori	r2,r2,128
   86874:	10bfe004 	addi	r2,r2,-128
   86878:	10800bd8 	cmpnei	r2,r2,47
   8687c:	1000031e 	bne	r2,zero,8688c <alt_find_file+0x6c>
   86880:	e0bffe17 	ldw	r2,-8(fp)
   86884:	10bfffc4 	addi	r2,r2,-1
   86888:	e0bffe15 	stw	r2,-8(fp)
   8688c:	e0bffe17 	ldw	r2,-8(fp)
   86890:	e0ffff17 	ldw	r3,-4(fp)
   86894:	1885883a 	add	r2,r3,r2
   86898:	10800003 	ldbu	r2,0(r2)
   8689c:	10803fcc 	andi	r2,r2,255
   868a0:	1080201c 	xori	r2,r2,128
   868a4:	10bfe004 	addi	r2,r2,-128
   868a8:	10800be0 	cmpeqi	r2,r2,47
   868ac:	1000081e 	bne	r2,zero,868d0 <alt_find_file+0xb0>
   868b0:	e0bffe17 	ldw	r2,-8(fp)
   868b4:	e0ffff17 	ldw	r3,-4(fp)
   868b8:	1885883a 	add	r2,r3,r2
   868bc:	10800003 	ldbu	r2,0(r2)
   868c0:	10803fcc 	andi	r2,r2,255
   868c4:	1080201c 	xori	r2,r2,128
   868c8:	10bfe004 	addi	r2,r2,-128
   868cc:	10000a1e 	bne	r2,zero,868f8 <alt_find_file+0xd8>
   868d0:	e0bffd17 	ldw	r2,-12(fp)
   868d4:	10800217 	ldw	r2,8(r2)
   868d8:	e0fffe17 	ldw	r3,-8(fp)
   868dc:	180d883a 	mov	r6,r3
   868e0:	e17fff17 	ldw	r5,-4(fp)
   868e4:	1009883a 	mov	r4,r2
   868e8:	0086b440 	call	86b44 <memcmp>
   868ec:	1000021e 	bne	r2,zero,868f8 <alt_find_file+0xd8>
   868f0:	e0bffd17 	ldw	r2,-12(fp)
   868f4:	00000706 	br	86914 <alt_find_file+0xf4>
   868f8:	e0bffd17 	ldw	r2,-12(fp)
   868fc:	10800017 	ldw	r2,0(r2)
   86900:	e0bffd15 	stw	r2,-12(fp)
   86904:	e0fffd17 	ldw	r3,-12(fp)
   86908:	d0a00304 	addi	r2,gp,-32756
   8690c:	18bfcc1e 	bne	r3,r2,86840 <__alt_data_end+0xfff86840>
   86910:	0005883a 	mov	r2,zero
   86914:	e037883a 	mov	sp,fp
   86918:	dfc00117 	ldw	ra,4(sp)
   8691c:	df000017 	ldw	fp,0(sp)
   86920:	dec00204 	addi	sp,sp,8
   86924:	f800283a 	ret

00086928 <alt_get_fd>:
   86928:	defffc04 	addi	sp,sp,-16
   8692c:	df000315 	stw	fp,12(sp)
   86930:	df000304 	addi	fp,sp,12
   86934:	e13fff15 	stw	r4,-4(fp)
   86938:	00bffa04 	movi	r2,-24
   8693c:	e0bffe15 	stw	r2,-8(fp)
   86940:	e03ffd15 	stw	zero,-12(fp)
   86944:	00001906 	br	869ac <alt_get_fd+0x84>
   86948:	00800274 	movhi	r2,9
   8694c:	10a19604 	addi	r2,r2,-31144
   86950:	e0fffd17 	ldw	r3,-12(fp)
   86954:	18c00324 	muli	r3,r3,12
   86958:	10c5883a 	add	r2,r2,r3
   8695c:	10800017 	ldw	r2,0(r2)
   86960:	10000f1e 	bne	r2,zero,869a0 <alt_get_fd+0x78>
   86964:	00800274 	movhi	r2,9
   86968:	10a19604 	addi	r2,r2,-31144
   8696c:	e0fffd17 	ldw	r3,-12(fp)
   86970:	18c00324 	muli	r3,r3,12
   86974:	10c5883a 	add	r2,r2,r3
   86978:	e0ffff17 	ldw	r3,-4(fp)
   8697c:	10c00015 	stw	r3,0(r2)
   86980:	d0e00717 	ldw	r3,-32740(gp)
   86984:	e0bffd17 	ldw	r2,-12(fp)
   86988:	1880020e 	bge	r3,r2,86994 <alt_get_fd+0x6c>
   8698c:	e0bffd17 	ldw	r2,-12(fp)
   86990:	d0a00715 	stw	r2,-32740(gp)
   86994:	e0bffd17 	ldw	r2,-12(fp)
   86998:	e0bffe15 	stw	r2,-8(fp)
   8699c:	00000606 	br	869b8 <alt_get_fd+0x90>
   869a0:	e0bffd17 	ldw	r2,-12(fp)
   869a4:	10800044 	addi	r2,r2,1
   869a8:	e0bffd15 	stw	r2,-12(fp)
   869ac:	e0bffd17 	ldw	r2,-12(fp)
   869b0:	10800810 	cmplti	r2,r2,32
   869b4:	103fe41e 	bne	r2,zero,86948 <__alt_data_end+0xfff86948>
   869b8:	e0bffe17 	ldw	r2,-8(fp)
   869bc:	e037883a 	mov	sp,fp
   869c0:	df000017 	ldw	fp,0(sp)
   869c4:	dec00104 	addi	sp,sp,4
   869c8:	f800283a 	ret

000869cc <alt_icache_flush>:
   869cc:	defffb04 	addi	sp,sp,-20
   869d0:	df000415 	stw	fp,16(sp)
   869d4:	df000404 	addi	fp,sp,16
   869d8:	e13ffe15 	stw	r4,-8(fp)
   869dc:	e17fff15 	stw	r5,-4(fp)
   869e0:	e0bfff17 	ldw	r2,-4(fp)
   869e4:	10840070 	cmpltui	r2,r2,4097
   869e8:	1000021e 	bne	r2,zero,869f4 <alt_icache_flush+0x28>
   869ec:	00840004 	movi	r2,4096
   869f0:	e0bfff15 	stw	r2,-4(fp)
   869f4:	e0fffe17 	ldw	r3,-8(fp)
   869f8:	e0bfff17 	ldw	r2,-4(fp)
   869fc:	1885883a 	add	r2,r3,r2
   86a00:	e0bffd15 	stw	r2,-12(fp)
   86a04:	e0bffe17 	ldw	r2,-8(fp)
   86a08:	e0bffc15 	stw	r2,-16(fp)
   86a0c:	00000506 	br	86a24 <alt_icache_flush+0x58>
   86a10:	e0bffc17 	ldw	r2,-16(fp)
   86a14:	1000603a 	flushi	r2
   86a18:	e0bffc17 	ldw	r2,-16(fp)
   86a1c:	10800804 	addi	r2,r2,32
   86a20:	e0bffc15 	stw	r2,-16(fp)
   86a24:	e0fffc17 	ldw	r3,-16(fp)
   86a28:	e0bffd17 	ldw	r2,-12(fp)
   86a2c:	18bff836 	bltu	r3,r2,86a10 <__alt_data_end+0xfff86a10>
   86a30:	e0bffe17 	ldw	r2,-8(fp)
   86a34:	108007cc 	andi	r2,r2,31
   86a38:	10000226 	beq	r2,zero,86a44 <alt_icache_flush+0x78>
   86a3c:	e0bffc17 	ldw	r2,-16(fp)
   86a40:	1000603a 	flushi	r2
   86a44:	0000203a 	flushp
   86a48:	0001883a 	nop
   86a4c:	e037883a 	mov	sp,fp
   86a50:	df000017 	ldw	fp,0(sp)
   86a54:	dec00104 	addi	sp,sp,4
   86a58:	f800283a 	ret

00086a5c <alt_exception_cause_generated_bad_addr>:
   86a5c:	defffe04 	addi	sp,sp,-8
   86a60:	df000115 	stw	fp,4(sp)
   86a64:	df000104 	addi	fp,sp,4
   86a68:	e13fff15 	stw	r4,-4(fp)
   86a6c:	e0bfff17 	ldw	r2,-4(fp)
   86a70:	10bffe84 	addi	r2,r2,-6
   86a74:	10c00428 	cmpgeui	r3,r2,16
   86a78:	18001a1e 	bne	r3,zero,86ae4 <alt_exception_cause_generated_bad_addr+0x88>
   86a7c:	100690ba 	slli	r3,r2,2
   86a80:	00800234 	movhi	r2,8
   86a84:	109aa504 	addi	r2,r2,27284
   86a88:	1885883a 	add	r2,r3,r2
   86a8c:	10800017 	ldw	r2,0(r2)
   86a90:	1000683a 	jmp	r2
   86a94:	00086ad4 	movui	zero,8619
   86a98:	00086ad4 	movui	zero,8619
   86a9c:	00086ae4 	muli	zero,zero,8619
   86aa0:	00086ae4 	muli	zero,zero,8619
   86aa4:	00086ae4 	muli	zero,zero,8619
   86aa8:	00086ad4 	movui	zero,8619
   86aac:	00086adc 	xori	zero,zero,8619
   86ab0:	00086ae4 	muli	zero,zero,8619
   86ab4:	00086ad4 	movui	zero,8619
   86ab8:	00086ad4 	movui	zero,8619
   86abc:	00086ae4 	muli	zero,zero,8619
   86ac0:	00086ad4 	movui	zero,8619
   86ac4:	00086adc 	xori	zero,zero,8619
   86ac8:	00086ae4 	muli	zero,zero,8619
   86acc:	00086ae4 	muli	zero,zero,8619
   86ad0:	00086ad4 	movui	zero,8619
   86ad4:	00800044 	movi	r2,1
   86ad8:	00000306 	br	86ae8 <alt_exception_cause_generated_bad_addr+0x8c>
   86adc:	0005883a 	mov	r2,zero
   86ae0:	00000106 	br	86ae8 <alt_exception_cause_generated_bad_addr+0x8c>
   86ae4:	0005883a 	mov	r2,zero
   86ae8:	e037883a 	mov	sp,fp
   86aec:	df000017 	ldw	fp,0(sp)
   86af0:	dec00104 	addi	sp,sp,4
   86af4:	f800283a 	ret

00086af8 <atexit>:
   86af8:	200b883a 	mov	r5,r4
   86afc:	000f883a 	mov	r7,zero
   86b00:	000d883a 	mov	r6,zero
   86b04:	0009883a 	mov	r4,zero
   86b08:	0086da01 	jmpi	86da0 <__register_exitproc>

00086b0c <exit>:
   86b0c:	defffe04 	addi	sp,sp,-8
   86b10:	000b883a 	mov	r5,zero
   86b14:	dc000015 	stw	r16,0(sp)
   86b18:	dfc00115 	stw	ra,4(sp)
   86b1c:	2021883a 	mov	r16,r4
   86b20:	0086eb80 	call	86eb8 <__call_exitprocs>
   86b24:	00800274 	movhi	r2,9
   86b28:	10a1f704 	addi	r2,r2,-30756
   86b2c:	11000017 	ldw	r4,0(r2)
   86b30:	20800f17 	ldw	r2,60(r4)
   86b34:	10000126 	beq	r2,zero,86b3c <exit+0x30>
   86b38:	103ee83a 	callr	r2
   86b3c:	8009883a 	mov	r4,r16
   86b40:	00870380 	call	87038 <_exit>

00086b44 <memcmp>:
   86b44:	01c000c4 	movi	r7,3
   86b48:	3980192e 	bgeu	r7,r6,86bb0 <memcmp+0x6c>
   86b4c:	2144b03a 	or	r2,r4,r5
   86b50:	11c4703a 	and	r2,r2,r7
   86b54:	10000f26 	beq	r2,zero,86b94 <memcmp+0x50>
   86b58:	20800003 	ldbu	r2,0(r4)
   86b5c:	28c00003 	ldbu	r3,0(r5)
   86b60:	10c0151e 	bne	r2,r3,86bb8 <memcmp+0x74>
   86b64:	31bfff84 	addi	r6,r6,-2
   86b68:	01ffffc4 	movi	r7,-1
   86b6c:	00000406 	br	86b80 <memcmp+0x3c>
   86b70:	20800003 	ldbu	r2,0(r4)
   86b74:	28c00003 	ldbu	r3,0(r5)
   86b78:	31bfffc4 	addi	r6,r6,-1
   86b7c:	10c00e1e 	bne	r2,r3,86bb8 <memcmp+0x74>
   86b80:	21000044 	addi	r4,r4,1
   86b84:	29400044 	addi	r5,r5,1
   86b88:	31fff91e 	bne	r6,r7,86b70 <__alt_data_end+0xfff86b70>
   86b8c:	0005883a 	mov	r2,zero
   86b90:	f800283a 	ret
   86b94:	20c00017 	ldw	r3,0(r4)
   86b98:	28800017 	ldw	r2,0(r5)
   86b9c:	18bfee1e 	bne	r3,r2,86b58 <__alt_data_end+0xfff86b58>
   86ba0:	31bfff04 	addi	r6,r6,-4
   86ba4:	21000104 	addi	r4,r4,4
   86ba8:	29400104 	addi	r5,r5,4
   86bac:	39bff936 	bltu	r7,r6,86b94 <__alt_data_end+0xfff86b94>
   86bb0:	303fe91e 	bne	r6,zero,86b58 <__alt_data_end+0xfff86b58>
   86bb4:	003ff506 	br	86b8c <__alt_data_end+0xfff86b8c>
   86bb8:	10c5c83a 	sub	r2,r2,r3
   86bbc:	f800283a 	ret

00086bc0 <memcpy>:
   86bc0:	defffd04 	addi	sp,sp,-12
   86bc4:	dfc00215 	stw	ra,8(sp)
   86bc8:	dc400115 	stw	r17,4(sp)
   86bcc:	dc000015 	stw	r16,0(sp)
   86bd0:	00c003c4 	movi	r3,15
   86bd4:	2005883a 	mov	r2,r4
   86bd8:	1980452e 	bgeu	r3,r6,86cf0 <memcpy+0x130>
   86bdc:	2906b03a 	or	r3,r5,r4
   86be0:	18c000cc 	andi	r3,r3,3
   86be4:	1800441e 	bne	r3,zero,86cf8 <memcpy+0x138>
   86be8:	347ffc04 	addi	r17,r6,-16
   86bec:	8822d13a 	srli	r17,r17,4
   86bf0:	28c00104 	addi	r3,r5,4
   86bf4:	23400104 	addi	r13,r4,4
   86bf8:	8820913a 	slli	r16,r17,4
   86bfc:	2b000204 	addi	r12,r5,8
   86c00:	22c00204 	addi	r11,r4,8
   86c04:	84000504 	addi	r16,r16,20
   86c08:	2a800304 	addi	r10,r5,12
   86c0c:	22400304 	addi	r9,r4,12
   86c10:	2c21883a 	add	r16,r5,r16
   86c14:	2811883a 	mov	r8,r5
   86c18:	200f883a 	mov	r7,r4
   86c1c:	41000017 	ldw	r4,0(r8)
   86c20:	1fc00017 	ldw	ra,0(r3)
   86c24:	63c00017 	ldw	r15,0(r12)
   86c28:	39000015 	stw	r4,0(r7)
   86c2c:	53800017 	ldw	r14,0(r10)
   86c30:	6fc00015 	stw	ra,0(r13)
   86c34:	5bc00015 	stw	r15,0(r11)
   86c38:	4b800015 	stw	r14,0(r9)
   86c3c:	18c00404 	addi	r3,r3,16
   86c40:	39c00404 	addi	r7,r7,16
   86c44:	42000404 	addi	r8,r8,16
   86c48:	6b400404 	addi	r13,r13,16
   86c4c:	63000404 	addi	r12,r12,16
   86c50:	5ac00404 	addi	r11,r11,16
   86c54:	52800404 	addi	r10,r10,16
   86c58:	4a400404 	addi	r9,r9,16
   86c5c:	1c3fef1e 	bne	r3,r16,86c1c <__alt_data_end+0xfff86c1c>
   86c60:	89c00044 	addi	r7,r17,1
   86c64:	380e913a 	slli	r7,r7,4
   86c68:	310003cc 	andi	r4,r6,15
   86c6c:	02c000c4 	movi	r11,3
   86c70:	11c7883a 	add	r3,r2,r7
   86c74:	29cb883a 	add	r5,r5,r7
   86c78:	5900212e 	bgeu	r11,r4,86d00 <memcpy+0x140>
   86c7c:	1813883a 	mov	r9,r3
   86c80:	2811883a 	mov	r8,r5
   86c84:	200f883a 	mov	r7,r4
   86c88:	42800017 	ldw	r10,0(r8)
   86c8c:	4a400104 	addi	r9,r9,4
   86c90:	39ffff04 	addi	r7,r7,-4
   86c94:	4abfff15 	stw	r10,-4(r9)
   86c98:	42000104 	addi	r8,r8,4
   86c9c:	59fffa36 	bltu	r11,r7,86c88 <__alt_data_end+0xfff86c88>
   86ca0:	213fff04 	addi	r4,r4,-4
   86ca4:	2008d0ba 	srli	r4,r4,2
   86ca8:	318000cc 	andi	r6,r6,3
   86cac:	21000044 	addi	r4,r4,1
   86cb0:	2109883a 	add	r4,r4,r4
   86cb4:	2109883a 	add	r4,r4,r4
   86cb8:	1907883a 	add	r3,r3,r4
   86cbc:	290b883a 	add	r5,r5,r4
   86cc0:	30000626 	beq	r6,zero,86cdc <memcpy+0x11c>
   86cc4:	198d883a 	add	r6,r3,r6
   86cc8:	29c00003 	ldbu	r7,0(r5)
   86ccc:	18c00044 	addi	r3,r3,1
   86cd0:	29400044 	addi	r5,r5,1
   86cd4:	19ffffc5 	stb	r7,-1(r3)
   86cd8:	19bffb1e 	bne	r3,r6,86cc8 <__alt_data_end+0xfff86cc8>
   86cdc:	dfc00217 	ldw	ra,8(sp)
   86ce0:	dc400117 	ldw	r17,4(sp)
   86ce4:	dc000017 	ldw	r16,0(sp)
   86ce8:	dec00304 	addi	sp,sp,12
   86cec:	f800283a 	ret
   86cf0:	2007883a 	mov	r3,r4
   86cf4:	003ff206 	br	86cc0 <__alt_data_end+0xfff86cc0>
   86cf8:	2007883a 	mov	r3,r4
   86cfc:	003ff106 	br	86cc4 <__alt_data_end+0xfff86cc4>
   86d00:	200d883a 	mov	r6,r4
   86d04:	003fee06 	br	86cc0 <__alt_data_end+0xfff86cc0>

00086d08 <strlen>:
   86d08:	208000cc 	andi	r2,r4,3
   86d0c:	10002026 	beq	r2,zero,86d90 <strlen+0x88>
   86d10:	20800007 	ldb	r2,0(r4)
   86d14:	10002026 	beq	r2,zero,86d98 <strlen+0x90>
   86d18:	2005883a 	mov	r2,r4
   86d1c:	00000206 	br	86d28 <strlen+0x20>
   86d20:	10c00007 	ldb	r3,0(r2)
   86d24:	18001826 	beq	r3,zero,86d88 <strlen+0x80>
   86d28:	10800044 	addi	r2,r2,1
   86d2c:	10c000cc 	andi	r3,r2,3
   86d30:	183ffb1e 	bne	r3,zero,86d20 <__alt_data_end+0xfff86d20>
   86d34:	10c00017 	ldw	r3,0(r2)
   86d38:	01ffbff4 	movhi	r7,65279
   86d3c:	39ffbfc4 	addi	r7,r7,-257
   86d40:	00ca303a 	nor	r5,zero,r3
   86d44:	01a02074 	movhi	r6,32897
   86d48:	19c7883a 	add	r3,r3,r7
   86d4c:	31a02004 	addi	r6,r6,-32640
   86d50:	1946703a 	and	r3,r3,r5
   86d54:	1986703a 	and	r3,r3,r6
   86d58:	1800091e 	bne	r3,zero,86d80 <strlen+0x78>
   86d5c:	10800104 	addi	r2,r2,4
   86d60:	10c00017 	ldw	r3,0(r2)
   86d64:	19cb883a 	add	r5,r3,r7
   86d68:	00c6303a 	nor	r3,zero,r3
   86d6c:	28c6703a 	and	r3,r5,r3
   86d70:	1986703a 	and	r3,r3,r6
   86d74:	183ff926 	beq	r3,zero,86d5c <__alt_data_end+0xfff86d5c>
   86d78:	00000106 	br	86d80 <strlen+0x78>
   86d7c:	10800044 	addi	r2,r2,1
   86d80:	10c00007 	ldb	r3,0(r2)
   86d84:	183ffd1e 	bne	r3,zero,86d7c <__alt_data_end+0xfff86d7c>
   86d88:	1105c83a 	sub	r2,r2,r4
   86d8c:	f800283a 	ret
   86d90:	2005883a 	mov	r2,r4
   86d94:	003fe706 	br	86d34 <__alt_data_end+0xfff86d34>
   86d98:	0005883a 	mov	r2,zero
   86d9c:	f800283a 	ret

00086da0 <__register_exitproc>:
   86da0:	defffa04 	addi	sp,sp,-24
   86da4:	dc000315 	stw	r16,12(sp)
   86da8:	04000274 	movhi	r16,9
   86dac:	8421f704 	addi	r16,r16,-30756
   86db0:	80c00017 	ldw	r3,0(r16)
   86db4:	dc400415 	stw	r17,16(sp)
   86db8:	dfc00515 	stw	ra,20(sp)
   86dbc:	18805217 	ldw	r2,328(r3)
   86dc0:	2023883a 	mov	r17,r4
   86dc4:	10003726 	beq	r2,zero,86ea4 <__register_exitproc+0x104>
   86dc8:	10c00117 	ldw	r3,4(r2)
   86dcc:	010007c4 	movi	r4,31
   86dd0:	20c00e16 	blt	r4,r3,86e0c <__register_exitproc+0x6c>
   86dd4:	1a000044 	addi	r8,r3,1
   86dd8:	8800221e 	bne	r17,zero,86e64 <__register_exitproc+0xc4>
   86ddc:	18c00084 	addi	r3,r3,2
   86de0:	18c7883a 	add	r3,r3,r3
   86de4:	18c7883a 	add	r3,r3,r3
   86de8:	12000115 	stw	r8,4(r2)
   86dec:	10c7883a 	add	r3,r2,r3
   86df0:	19400015 	stw	r5,0(r3)
   86df4:	0005883a 	mov	r2,zero
   86df8:	dfc00517 	ldw	ra,20(sp)
   86dfc:	dc400417 	ldw	r17,16(sp)
   86e00:	dc000317 	ldw	r16,12(sp)
   86e04:	dec00604 	addi	sp,sp,24
   86e08:	f800283a 	ret
   86e0c:	00800034 	movhi	r2,0
   86e10:	10800004 	addi	r2,r2,0
   86e14:	10002626 	beq	r2,zero,86eb0 <__register_exitproc+0x110>
   86e18:	01006404 	movi	r4,400
   86e1c:	d9400015 	stw	r5,0(sp)
   86e20:	d9800115 	stw	r6,4(sp)
   86e24:	d9c00215 	stw	r7,8(sp)
   86e28:	00000000 	call	0 <__reset-0x80000>
   86e2c:	d9400017 	ldw	r5,0(sp)
   86e30:	d9800117 	ldw	r6,4(sp)
   86e34:	d9c00217 	ldw	r7,8(sp)
   86e38:	10001d26 	beq	r2,zero,86eb0 <__register_exitproc+0x110>
   86e3c:	81000017 	ldw	r4,0(r16)
   86e40:	10000115 	stw	zero,4(r2)
   86e44:	02000044 	movi	r8,1
   86e48:	22405217 	ldw	r9,328(r4)
   86e4c:	0007883a 	mov	r3,zero
   86e50:	12400015 	stw	r9,0(r2)
   86e54:	20805215 	stw	r2,328(r4)
   86e58:	10006215 	stw	zero,392(r2)
   86e5c:	10006315 	stw	zero,396(r2)
   86e60:	883fde26 	beq	r17,zero,86ddc <__alt_data_end+0xfff86ddc>
   86e64:	18c9883a 	add	r4,r3,r3
   86e68:	2109883a 	add	r4,r4,r4
   86e6c:	1109883a 	add	r4,r2,r4
   86e70:	21802215 	stw	r6,136(r4)
   86e74:	01800044 	movi	r6,1
   86e78:	12406217 	ldw	r9,392(r2)
   86e7c:	30cc983a 	sll	r6,r6,r3
   86e80:	4992b03a 	or	r9,r9,r6
   86e84:	12406215 	stw	r9,392(r2)
   86e88:	21c04215 	stw	r7,264(r4)
   86e8c:	01000084 	movi	r4,2
   86e90:	893fd21e 	bne	r17,r4,86ddc <__alt_data_end+0xfff86ddc>
   86e94:	11006317 	ldw	r4,396(r2)
   86e98:	218cb03a 	or	r6,r4,r6
   86e9c:	11806315 	stw	r6,396(r2)
   86ea0:	003fce06 	br	86ddc <__alt_data_end+0xfff86ddc>
   86ea4:	18805304 	addi	r2,r3,332
   86ea8:	18805215 	stw	r2,328(r3)
   86eac:	003fc606 	br	86dc8 <__alt_data_end+0xfff86dc8>
   86eb0:	00bfffc4 	movi	r2,-1
   86eb4:	003fd006 	br	86df8 <__alt_data_end+0xfff86df8>

00086eb8 <__call_exitprocs>:
   86eb8:	defff504 	addi	sp,sp,-44
   86ebc:	df000915 	stw	fp,36(sp)
   86ec0:	dd400615 	stw	r21,24(sp)
   86ec4:	dc800315 	stw	r18,12(sp)
   86ec8:	dfc00a15 	stw	ra,40(sp)
   86ecc:	ddc00815 	stw	r23,32(sp)
   86ed0:	dd800715 	stw	r22,28(sp)
   86ed4:	dd000515 	stw	r20,20(sp)
   86ed8:	dcc00415 	stw	r19,16(sp)
   86edc:	dc400215 	stw	r17,8(sp)
   86ee0:	dc000115 	stw	r16,4(sp)
   86ee4:	d9000015 	stw	r4,0(sp)
   86ee8:	2839883a 	mov	fp,r5
   86eec:	04800044 	movi	r18,1
   86ef0:	057fffc4 	movi	r21,-1
   86ef4:	00800274 	movhi	r2,9
   86ef8:	10a1f704 	addi	r2,r2,-30756
   86efc:	12000017 	ldw	r8,0(r2)
   86f00:	45005217 	ldw	r20,328(r8)
   86f04:	44c05204 	addi	r19,r8,328
   86f08:	a0001c26 	beq	r20,zero,86f7c <__call_exitprocs+0xc4>
   86f0c:	a0800117 	ldw	r2,4(r20)
   86f10:	15ffffc4 	addi	r23,r2,-1
   86f14:	b8000d16 	blt	r23,zero,86f4c <__call_exitprocs+0x94>
   86f18:	14000044 	addi	r16,r2,1
   86f1c:	8421883a 	add	r16,r16,r16
   86f20:	8421883a 	add	r16,r16,r16
   86f24:	84402004 	addi	r17,r16,128
   86f28:	a463883a 	add	r17,r20,r17
   86f2c:	a421883a 	add	r16,r20,r16
   86f30:	e0001e26 	beq	fp,zero,86fac <__call_exitprocs+0xf4>
   86f34:	80804017 	ldw	r2,256(r16)
   86f38:	e0801c26 	beq	fp,r2,86fac <__call_exitprocs+0xf4>
   86f3c:	bdffffc4 	addi	r23,r23,-1
   86f40:	843fff04 	addi	r16,r16,-4
   86f44:	8c7fff04 	addi	r17,r17,-4
   86f48:	bd7ff91e 	bne	r23,r21,86f30 <__alt_data_end+0xfff86f30>
   86f4c:	00800034 	movhi	r2,0
   86f50:	10800004 	addi	r2,r2,0
   86f54:	10000926 	beq	r2,zero,86f7c <__call_exitprocs+0xc4>
   86f58:	a0800117 	ldw	r2,4(r20)
   86f5c:	1000301e 	bne	r2,zero,87020 <__call_exitprocs+0x168>
   86f60:	a0800017 	ldw	r2,0(r20)
   86f64:	10003226 	beq	r2,zero,87030 <__call_exitprocs+0x178>
   86f68:	a009883a 	mov	r4,r20
   86f6c:	98800015 	stw	r2,0(r19)
   86f70:	00000000 	call	0 <__reset-0x80000>
   86f74:	9d000017 	ldw	r20,0(r19)
   86f78:	a03fe41e 	bne	r20,zero,86f0c <__alt_data_end+0xfff86f0c>
   86f7c:	dfc00a17 	ldw	ra,40(sp)
   86f80:	df000917 	ldw	fp,36(sp)
   86f84:	ddc00817 	ldw	r23,32(sp)
   86f88:	dd800717 	ldw	r22,28(sp)
   86f8c:	dd400617 	ldw	r21,24(sp)
   86f90:	dd000517 	ldw	r20,20(sp)
   86f94:	dcc00417 	ldw	r19,16(sp)
   86f98:	dc800317 	ldw	r18,12(sp)
   86f9c:	dc400217 	ldw	r17,8(sp)
   86fa0:	dc000117 	ldw	r16,4(sp)
   86fa4:	dec00b04 	addi	sp,sp,44
   86fa8:	f800283a 	ret
   86fac:	a0800117 	ldw	r2,4(r20)
   86fb0:	80c00017 	ldw	r3,0(r16)
   86fb4:	10bfffc4 	addi	r2,r2,-1
   86fb8:	15c01426 	beq	r2,r23,8700c <__call_exitprocs+0x154>
   86fbc:	80000015 	stw	zero,0(r16)
   86fc0:	183fde26 	beq	r3,zero,86f3c <__alt_data_end+0xfff86f3c>
   86fc4:	95c8983a 	sll	r4,r18,r23
   86fc8:	a0806217 	ldw	r2,392(r20)
   86fcc:	a5800117 	ldw	r22,4(r20)
   86fd0:	2084703a 	and	r2,r4,r2
   86fd4:	10000b26 	beq	r2,zero,87004 <__call_exitprocs+0x14c>
   86fd8:	a0806317 	ldw	r2,396(r20)
   86fdc:	2088703a 	and	r4,r4,r2
   86fe0:	20000c1e 	bne	r4,zero,87014 <__call_exitprocs+0x15c>
   86fe4:	89400017 	ldw	r5,0(r17)
   86fe8:	d9000017 	ldw	r4,0(sp)
   86fec:	183ee83a 	callr	r3
   86ff0:	a0800117 	ldw	r2,4(r20)
   86ff4:	15bfbf1e 	bne	r2,r22,86ef4 <__alt_data_end+0xfff86ef4>
   86ff8:	98800017 	ldw	r2,0(r19)
   86ffc:	153fcf26 	beq	r2,r20,86f3c <__alt_data_end+0xfff86f3c>
   87000:	003fbc06 	br	86ef4 <__alt_data_end+0xfff86ef4>
   87004:	183ee83a 	callr	r3
   87008:	003ff906 	br	86ff0 <__alt_data_end+0xfff86ff0>
   8700c:	a5c00115 	stw	r23,4(r20)
   87010:	003feb06 	br	86fc0 <__alt_data_end+0xfff86fc0>
   87014:	89000017 	ldw	r4,0(r17)
   87018:	183ee83a 	callr	r3
   8701c:	003ff406 	br	86ff0 <__alt_data_end+0xfff86ff0>
   87020:	a0800017 	ldw	r2,0(r20)
   87024:	a027883a 	mov	r19,r20
   87028:	1029883a 	mov	r20,r2
   8702c:	003fb606 	br	86f08 <__alt_data_end+0xfff86f08>
   87030:	0005883a 	mov	r2,zero
   87034:	003ffb06 	br	87024 <__alt_data_end+0xfff87024>

00087038 <_exit>:
   87038:	defffd04 	addi	sp,sp,-12
   8703c:	df000215 	stw	fp,8(sp)
   87040:	df000204 	addi	fp,sp,8
   87044:	e13fff15 	stw	r4,-4(fp)
   87048:	0001883a 	nop
   8704c:	e0bfff17 	ldw	r2,-4(fp)
   87050:	e0bffe15 	stw	r2,-8(fp)
   87054:	e0bffe17 	ldw	r2,-8(fp)
   87058:	10000226 	beq	r2,zero,87064 <_exit+0x2c>
   8705c:	002af070 	cmpltui	zero,zero,43969
   87060:	00000106 	br	87068 <_exit+0x30>
   87064:	002af0b0 	cmpltui	zero,zero,43970
   87068:	003fff06 	br	87068 <__alt_data_end+0xfff87068>
